func_ov054_02139f20 kind:function(arm,size=0x84) addr:0x02139f20
_ZN16ActorTypeUnkFBBH11GetInstanceEv kind:function(arm,size=0xc) addr:0x02139fa4
_ZN16ActorTypeUnkFBBH6CreateEv kind:function(arm,size=0x24) addr:0x02139fb0
_ZN16ActorTypeUnkFBBHC1Ev kind:function(arm,size=0x44) addr:0x02139fd4
_ZN12ActorUnkFBBHC1Ev kind:function(arm,size=0x1dc) addr:0x0213a018
_ZN12ActorUnkFBBH19func_ov054_0213a1f4Ev kind:function(arm,size=0x14) addr:0x0213a1f4
_ZN12ActorUnkFBBH19func_ov054_0213a208Ev kind:function(arm,size=0x34) addr:0x0213a208
_ZN12ActorUnkFBBH19func_ov054_0213a23cEv kind:function(arm,size=0x58) addr:0x0213a23c
_ZN12ActorUnkFBBH19func_ov054_0213a294Ev kind:function(arm,size=0x24) addr:0x0213a294
_ZN12ActorUnkFBBH19func_ov054_0213a2b8Ev kind:function(arm,size=0x4c) addr:0x0213a2b8
_ZN12ActorUnkFBBH19func_ov054_0213a304Ev kind:function(arm,size=0x1c) addr:0x0213a304
_ZN12ActorUnkFBBH19func_ov054_0213a320Ev kind:function(arm,size=0xe8) addr:0x0213a320
_ZN12ActorUnkFBBH19func_ov054_0213a408Ev kind:function(arm,size=0x114) addr:0x0213a408
_ZN12ActorUnkFBBH19func_ov054_0213a51cEv kind:function(arm,size=0x38) addr:0x0213a51c
_ZN12ActorUnkFBBH19func_ov054_0213a554Ev kind:function(arm,size=0x60) addr:0x0213a554
_ZN12ActorUnkFBBH19func_ov054_0213a5b4Ev kind:function(arm,size=0x98) addr:0x0213a5b4
_ZN12ActorUnkFBBH19func_ov054_0213a64cEv kind:function(arm,size=0x98) addr:0x0213a64c
_ZN12ActorUnkFBBH19func_ov054_0213a6e4Ev kind:function(arm,size=0x1b8) addr:0x0213a6e4
_ZN12ActorUnkFBBH19func_ov054_0213a89cEv kind:function(arm,size=0x18) addr:0x0213a89c
_ZN12ActorUnkFBBH19func_ov054_0213a8b4Ev kind:function(arm,size=0x14c) addr:0x0213a8b4
_ZN12ActorUnkFBBH19func_ov054_0213aa00Ev kind:function(arm,size=0x1dc) addr:0x0213aa00
_ZN12ActorUnkFBBH19func_ov054_0213abdcEv kind:function(arm,size=0x100) addr:0x0213abdc
_ZN12ActorUnkFBBH19func_ov054_0213acdcEv kind:function(arm,size=0x50) addr:0x0213acdc
_ZN12ActorUnkFBBH19func_ov054_0213ad2cEv kind:function(arm,size=0x19c) addr:0x0213ad2c
_ZN12ActorUnkFBBH19func_ov054_0213aec8Ev kind:function(arm,size=0x6c) addr:0x0213aec8
_ZN12ActorUnkFBBH19func_ov054_0213af34Ev kind:function(arm,size=0x134) addr:0x0213af34
_ZN12ActorUnkFBBH19func_ov054_0213b068Ev kind:function(arm,size=0x30) addr:0x0213b068
_ZN12ActorUnkFBBH19func_ov054_0213b098Ev kind:function(arm,size=0x84) addr:0x0213b098
_ZN12ActorUnkFBBH19func_ov054_0213b11cEv kind:function(arm,size=0x30) addr:0x0213b11c
_ZN12ActorUnkFBBH19func_ov054_0213b14cEv kind:function(arm,size=0x70) addr:0x0213b14c
_ZN12ActorUnkFBBH19func_ov054_0213b1bcEv kind:function(arm,size=0x74) addr:0x0213b1bc
_ZN12ActorUnkFBBH19func_ov054_0213b230Ev kind:function(arm,size=0x150) addr:0x0213b230
_ZN12ActorUnkFBBH19func_ov054_0213b380Ev kind:function(arm,size=0x70) addr:0x0213b380
_ZN12ActorUnkFBBH19func_ov054_0213b3f0Ev kind:function(arm,size=0x50) addr:0x0213b3f0
_ZN12ActorUnkFBBH19func_ov054_0213b440Ev kind:function(arm,size=0x70) addr:0x0213b440
_ZN12ActorUnkFBBH19func_ov054_0213b4b0Ev kind:function(arm,size=0x50) addr:0x0213b4b0
_ZN12ActorUnkFBBH19func_ov054_0213b500Ev kind:function(arm,size=0x7c) addr:0x0213b500
_ZN12ActorUnkFBBH19func_ov054_0213b57cEv kind:function(arm,size=0x2c) addr:0x0213b57c
_ZN12ActorUnkFBBH19func_ov054_0213b5a8Ev kind:function(arm,size=0x6c) addr:0x0213b5a8
_ZN12ActorUnkFBBH19func_ov054_0213b614Ev kind:function(arm,size=0x38) addr:0x0213b614
_ZN12ActorUnkFBBH19func_ov054_0213b64cEv kind:function(arm,size=0x70) addr:0x0213b64c
_ZN12ActorUnkFBBH19func_ov054_0213b6bcEv kind:function(arm,size=0x188) addr:0x0213b6bc
_ZN12ActorUnkFBBH19func_ov054_0213b844Ev kind:function(arm,size=0x74) addr:0x0213b844
_ZN12ActorUnkFBBH19func_ov054_0213b8b8Ev kind:function(arm,size=0xb0) addr:0x0213b8b8
_ZN12ActorUnkFBBH19func_ov054_0213b968Ev kind:function(arm,size=0x74) addr:0x0213b968
_ZN12ActorUnkFBBH19func_ov054_0213b9dcEv kind:function(arm,size=0x1fc) addr:0x0213b9dc
_ZN12ActorUnkFBBH19func_ov054_0213bbd8Ev kind:function(arm,size=0x78) addr:0x0213bbd8
_ZN12ActorUnkFBBH19func_ov054_0213bc50Ev kind:function(arm,size=0x50) addr:0x0213bc50
_ZN12ActorUnkFBBH19func_ov054_0213bca0Ev kind:function(arm,size=0x84) addr:0x0213bca0
_ZN12ActorUnkFBBH19func_ov054_0213bd24Ev kind:function(arm,size=0x1b8) addr:0x0213bd24
_ZN12ActorUnkFBBH19func_ov054_0213bedcEv kind:function(arm,size=0x20) addr:0x0213bedc
_ZN12ActorUnkFBBH19func_ov054_0213befcEv kind:function(arm,size=0xb0) addr:0x0213befc
_ZN12ActorUnkFBBH19func_ov054_0213bfacEv kind:function(arm,size=0xd4) addr:0x0213bfac
_ZN12ActorUnkFBBH19func_ov054_0213c080Ev kind:function(arm,size=0x44) addr:0x0213c080
_ZN12ActorUnkFBBH19func_ov054_0213c0c4Ev kind:function(arm,size=0x88) addr:0x0213c0c4
_ZN12ActorUnkFBBH19func_ov054_0213c14cEv kind:function(arm,size=0xf4) addr:0x0213c14c
_ZN12ActorUnkFBBH19func_ov054_0213c240Ev kind:function(arm,size=0x7c) addr:0x0213c240
_ZN12ActorUnkFBBH19func_ov054_0213c2bcEv kind:function(arm,size=0x3ec) addr:0x0213c2bc
_ZN12ActorUnkFBBH19func_ov054_0213c6a8Ev kind:function(arm,size=0x90) addr:0x0213c6a8
_ZN12ActorUnkFBBH19func_ov054_0213c738Ev kind:function(arm,size=0x1b8) addr:0x0213c738
_ZN12ActorUnkFBBH19func_ov054_0213c8f0Ev kind:function(arm,size=0x240) addr:0x0213c8f0
_ZN12ActorUnkFBBH19func_ov054_0213cb30Ev kind:function(arm,size=0x80) addr:0x0213cb30
_ZN12ActorUnkFBBH19func_ov054_0213cbb0Ev kind:function(arm,size=0x84) addr:0x0213cbb0
_ZN12ActorUnkFBBH19func_ov054_0213cc34Ev kind:function(arm,size=0x214) addr:0x0213cc34
_ZN12ActorUnkFBBH19func_ov054_0213ce48Ev kind:function(arm,size=0x20) addr:0x0213ce48
_ZN12ActorUnkFBBH19func_ov054_0213ce68Ev kind:function(arm,size=0x70) addr:0x0213ce68
_ZN12ActorUnkFBBH19func_ov054_0213ced8Ev kind:function(arm,size=0x3c) addr:0x0213ced8
_ZN12ActorUnkFBBH19func_ov054_0213cf14Ev kind:function(arm,size=0x88) addr:0x0213cf14
_ZN12ActorUnkFBBH19func_ov054_0213cf9cEv kind:function(arm,size=0x6d4) addr:0x0213cf9c
_ZN12ActorUnkFBBH19func_ov054_0213d670Ev kind:function(arm,size=0x98) addr:0x0213d670
_ZN12ActorUnkFBBH19func_ov054_0213d708Ev kind:function(arm,size=0xdc) addr:0x0213d708
_ZN12ActorUnkFBBH19func_ov054_0213d7e4Ev kind:function(arm,size=0x88) addr:0x0213d7e4
_ZN12ActorUnkFBBH19func_ov054_0213d86cEv kind:function(arm,size=0xe0) addr:0x0213d86c
_ZN12ActorUnkFBBH19func_ov054_0213d94cEv kind:function(arm,size=0x18) addr:0x0213d94c
_ZN12ActorUnkFBBH19func_ov054_0213d964Ev kind:function(arm,size=0x98) addr:0x0213d964
_ZN12ActorUnkFBBH19func_ov054_0213d9fcEv kind:function(arm,size=0xe0) addr:0x0213d9fc
_ZN12ActorUnkFBBH19func_ov054_0213dadcEv kind:function(arm,size=0x24) addr:0x0213dadc
_ZN12ActorUnkFBBH19func_ov054_0213db00Ev kind:function(arm,size=0x2c) addr:0x0213db00
_ZN12ActorUnkFBBH19func_ov054_0213db2cEv kind:function(arm,size=0x1c) addr:0x0213db2c
_ZN12ActorUnkFBBH19func_ov054_0213db48Ev kind:function(arm,size=0x7c) addr:0x0213db48
_ZN12ActorUnkFBBH19func_ov054_0213dbc4Ev kind:function(arm,size=0x84) addr:0x0213dbc4
_ZN16ActorTypeUnkFBBHD1Ev kind:function(arm,size=0x14) addr:0x0213dc48
_ZN16ActorTypeUnkFIBB11GetInstanceEv kind:function(arm,size=0xc) addr:0x0213dc5c
_ZN16ActorTypeUnkFIBB6CreateEv kind:function(arm,size=0x24) addr:0x0213dc68
_ZN16ActorTypeUnkFIBBC1Ev kind:function(arm,size=0x54) addr:0x0213dc8c
_ZN12ActorUnkFIBBC1Ev kind:function(arm,size=0x174) addr:0x0213dce0
_ZN12ActorUnkFIBB19func_ov054_0213de54Ev kind:function(arm,size=0x154) addr:0x0213de54
_ZN12ActorUnkFIBB19func_ov054_0213dfa8Ev kind:function(arm,size=0x50) addr:0x0213dfa8
_ZN12ActorUnkFIBB19func_ov054_0213dff8Ev kind:function(arm,size=0x90) addr:0x0213dff8
_ZN12ActorUnkFIBB19func_ov054_0213e088Ev kind:function(arm,size=0x7c) addr:0x0213e088
_ZN12ActorUnkFIBB19func_ov054_0213e104Ev kind:function(arm,size=0x34) addr:0x0213e104
_ZN12ActorUnkFIBB19func_ov054_0213e138Ev kind:function(arm,size=0x70) addr:0x0213e138
_ZN12ActorUnkFIBB19func_ov054_0213e1a8Ev kind:function(arm,size=0x90) addr:0x0213e1a8
_ZN12ActorUnkFIBB19func_ov054_0213e238Ev kind:function(arm,size=0x70) addr:0x0213e238
_ZN12ActorUnkFIBB19func_ov054_0213e2a8Ev kind:function(arm,size=0xb0) addr:0x0213e2a8
_ZN12ActorUnkFIBB19func_ov054_0213e358Ev kind:function(arm,size=0xb4) addr:0x0213e358
_ZN12ActorUnkFIBB19func_ov054_0213e40cEv kind:function(arm,size=0xe8) addr:0x0213e40c
_ZN12ActorUnkFIBB19func_ov054_0213e4f4Ev kind:function(arm,size=0x70) addr:0x0213e4f4
_ZN12ActorUnkFIBB19func_ov054_0213e564Ev kind:function(arm,size=0x70) addr:0x0213e564
_ZN12ActorUnkFIBB19func_ov054_0213e5d4Ev kind:function(arm,size=0x70) addr:0x0213e5d4
_ZN12ActorUnkFIBB19func_ov054_0213e644Ev kind:function(arm,size=0x124) addr:0x0213e644
_ZN12ActorUnkFIBB19func_ov054_0213e768Ev kind:function(arm,size=0x14) addr:0x0213e768
_ZN12ActorUnkFIBB19func_ov054_0213e77cEv kind:function(arm,size=0x64) addr:0x0213e77c
_ZN12ActorUnkFIBB19func_ov054_0213e7e0Ev kind:function(arm,size=0x4) addr:0x0213e7e0
_ZN12ActorUnkFIBB19func_ov054_0213e7e4Ev kind:function(arm,size=0x64) addr:0x0213e7e4
_ZN12ActorUnkFIBB19func_ov054_0213e848Ev kind:function(arm,size=0x4) addr:0x0213e848
_ZN12ActorUnkFIBB19func_ov054_0213e84cEv kind:function(arm,size=0x64) addr:0x0213e84c
_ZN12ActorUnkFIBB19func_ov054_0213e8b0Ev kind:function(arm,size=0xc) addr:0x0213e8b0
_ZN12ActorUnkFIBB19func_ov054_0213e8bcEv kind:function(arm,size=0x64) addr:0x0213e8bc
_ZN12ActorUnkFIBB19func_ov054_0213e920Ev kind:function(arm,size=0x2c) addr:0x0213e920
_ZN12ActorUnkFIBB19func_ov054_0213e94cEv kind:function(arm,size=0x64) addr:0x0213e94c
_ZN12ActorUnkFIBB19func_ov054_0213e9b0Ev kind:function(arm,size=0xc) addr:0x0213e9b0
_ZN12ActorUnkFIBB19func_ov054_0213e9bcEv kind:function(arm,size=0x64) addr:0x0213e9bc
_ZN12ActorUnkFIBB19func_ov054_0213ea20Ev kind:function(arm,size=0xf0) addr:0x0213ea20
_ZN12ActorUnkFIBB19func_ov054_0213eb10Ev kind:function(arm,size=0xc) addr:0x0213eb10
_ZN12ActorUnkFIBB19func_ov054_0213eb1cEv kind:function(arm,size=0x64) addr:0x0213eb1c
_ZN12ActorUnkFIBB19func_ov054_0213eb80Ev kind:function(arm,size=0x44) addr:0x0213eb80
_ZN12ActorUnkFIBB19func_ov054_0213ebc4Ev kind:function(arm,size=0x64) addr:0x0213ebc4
_ZN12ActorUnkFIBB19func_ov054_0213ec28Ev kind:function(arm,size=0x38) addr:0x0213ec28
_ZN12ActorUnkFIBB19func_ov054_0213ec60Ev kind:function(arm,size=0x110) addr:0x0213ec60
_ZN12ActorUnkFIBB19func_ov054_0213ed70Ev kind:function(arm,size=0x84) addr:0x0213ed70
_ZN12ActorUnkFIBB19func_ov054_0213edf4Ev kind:function(arm,size=0x128) addr:0x0213edf4
_ZN12ActorUnkFIBB19func_ov054_0213ef1cEv kind:function(arm,size=0x34) addr:0x0213ef1c
_ZN12ActorUnkFIBB19func_ov054_0213ef50Ev kind:function(arm,size=0x24) addr:0x0213ef50
_ZN12ActorUnkFIBB19func_ov054_0213ef74Ev kind:function(arm,size=0x50) addr:0x0213ef74
_ZN12ActorUnkFIBB19func_ov054_0213efc4Ev kind:function(arm,size=0x30) addr:0x0213efc4
_ZN12ActorUnkFIBB19func_ov054_0213eff4Ev kind:function(arm,size=0x38) addr:0x0213eff4
_ZN16ActorTypeUnkFIBBD1Ev kind:function(arm,size=0x14) addr:0x0213f02c
_ZN16ActorTypeUnkFBBF11GetInstanceEv kind:function(arm,size=0xc) addr:0x0213f040
_ZN16ActorTypeUnkFBBF6CreateEv kind:function(arm,size=0x24) addr:0x0213f04c
_ZN16ActorTypeUnkFBBFC1Ev kind:function(arm,size=0x44) addr:0x0213f070
_ZN12ActorUnkFBBFC1Ev kind:function(arm,size=0x3c) addr:0x0213f0b4
_ZN12ActorUnkFBBF19func_ov054_0213f0f0Ev kind:function(arm,size=0x34) addr:0x0213f0f0
_ZN12ActorUnkFBBF19func_ov054_0213f124Ev kind:function(arm,size=0x3c) addr:0x0213f124
_ZN12ActorUnkFBBF19func_ov054_0213f160Ev kind:function(arm,size=0x78) addr:0x0213f160
_ZN12ActorUnkFBBF19func_ov054_0213f1d8Ev kind:function(arm,size=0x148) addr:0x0213f1d8
_ZN12ActorUnkFBBF19func_ov054_0213f320Ev kind:function(arm,size=0x54) addr:0x0213f320
_ZN12ActorUnkFBBF19func_ov054_0213f374Ev kind:function(arm,size=0x78) addr:0x0213f374
_ZN12ActorUnkFBBF19func_ov054_0213f3ecEv kind:function(arm,size=0x58) addr:0x0213f3ec
_ZN16ActorTypeUnkFBBFD1Ev kind:function(arm,size=0x14) addr:0x0213f444
__sinit_ov054_0213f458 kind:function(arm,size=0x130) addr:0x0213f458
__sinit_ov054_0213f588 kind:function(arm,size=0xd8) addr:0x0213f588
__sinit_ov054_0213f660 kind:function(arm,size=0x50) addr:0x0213f660
.p__sinit_ov054_0213f458 kind:data(word) addr:0x0213f6b0
.p__sinit_ov054_0213f588 kind:data(word) addr:0x0213f6b4
.p__sinit_ov054_0213f660 kind:data(word) addr:0x0213f6b8
data_ov054_0213f6c0 kind:data(any) addr:0x0213f6c0
data_ov054_0213f6e0 kind:data(any) addr:0x0213f6e0
data_ov054_0213f6f0 kind:data(any) addr:0x0213f6f0
_ZTV19data_ov054_0213f700 kind:data(any) addr:0x0213f700
data_ov054_0213f72c kind:data(any) addr:0x0213f72c
_ZTV19data_ov054_0213f770 kind:data(any) addr:0x0213f770
data_ov054_0213f7d0 kind:data(any) addr:0x0213f7d0
data_ov054_0213f7e0 kind:data(any) addr:0x0213f7e0
data_ov054_0213f9b0 kind:data(any) addr:0x0213f9b0
data_ov054_0213f9c8 kind:data(any) addr:0x0213f9c8
data_ov054_0213f9e0 kind:data(any) addr:0x0213f9e0
data_ov054_0213f9f8 kind:data(any) addr:0x0213f9f8
data_ov054_0213fa10 kind:data(any) addr:0x0213fa10
data_ov054_0213fa28 kind:data(any) addr:0x0213fa28
data_ov054_0213fa40 kind:data(any) addr:0x0213fa40
data_ov054_0213fa58 kind:data(any) addr:0x0213fa58
data_ov054_0213fa70 kind:data(any) addr:0x0213fa70
data_ov054_0213fa88 kind:data(any) addr:0x0213fa88
data_ov054_0213faa0 kind:data(any) addr:0x0213faa0
data_ov054_0213fab8 kind:data(any) addr:0x0213fab8
data_ov054_0213fae8 kind:data(any) addr:0x0213fae8
data_ov054_0213fb00 kind:data(any) addr:0x0213fb00
data_ov054_0213fb18 kind:data(any) addr:0x0213fb18
data_ov054_0213fb30 kind:data(any) addr:0x0213fb30
data_ov054_0213fb48 kind:data(any) addr:0x0213fb48
data_ov054_0213fb60 kind:data(any) addr:0x0213fb60
_ZTV19data_ov054_0213fb90 kind:data(any) addr:0x0213fb90
_ZTV19data_ov054_0213fbb4 kind:data(any) addr:0x0213fbb4
_ZTV19data_ov054_0213fbd0 kind:data(any) addr:0x0213fbd0 ambiguous
data_ov054_0213fc10 kind:data(any) addr:0x0213fc10
data_ov054_0213fc20 kind:data(any) addr:0x0213fc20
data_ov054_0213fd60 kind:data(any) addr:0x0213fd60
data_ov054_0213fd78 kind:data(any) addr:0x0213fd78
data_ov054_0213fd90 kind:data(any) addr:0x0213fd90
data_ov054_0213fda8 kind:data(any) addr:0x0213fda8
data_ov054_0213fdc0 kind:data(any) addr:0x0213fdc0
data_ov054_0213fdd8 kind:data(any) addr:0x0213fdd8
data_ov054_0213fdf0 kind:data(any) addr:0x0213fdf0
data_ov054_0213fe08 kind:data(any) addr:0x0213fe08
data_ov054_0213fe20 kind:data(any) addr:0x0213fe20
data_ov054_0213fe38 kind:data(any) addr:0x0213fe38
data_ov054_0213fe50 kind:data(any) addr:0x0213fe50
data_ov054_0213fe68 kind:data(any) addr:0x0213fe68
data_ov054_0213fe98 kind:data(any) addr:0x0213fe98
data_ov054_0213feb0 kind:data(any) addr:0x0213feb0
_ZTV19data_ov054_0213fec8 kind:data(any) addr:0x0213fec8
_ZTV19data_ov054_0213feec kind:data(any) addr:0x0213feec
data_ov054_0213ff60 kind:bss addr:0x0213ff60
data_ov054_0213ff64 kind:bss addr:0x0213ff64
data_ov054_0213ff70 kind:bss addr:0x0213ff70
data_ov054_02140048 kind:bss addr:0x02140048
data_ov054_0214004c kind:bss addr:0x0214004c
data_ov054_02140058 kind:bss addr:0x02140058
data_ov054_02140130 kind:bss addr:0x02140130
data_ov054_02140134 kind:bss addr:0x02140134
data_ov054_02140140 kind:bss addr:0x02140140
