func_ov047_02131ec0 kind:function(arm,size=0x64) addr:0x02131ec0
func_ov047_02131f24 kind:function(arm,size=0x28) addr:0x02131f24
func_ov047_02131f4c kind:function(arm,size=0x30) addr:0x02131f4c
func_ov047_02131f7c kind:function(arm,size=0x200) addr:0x02131f7c
func_ov047_0213217c kind:function(arm,size=0x39c) addr:0x0213217c
func_ov047_02132518 kind:function(arm,size=0x3d8) addr:0x02132518
func_ov047_021328f0 kind:function(arm,size=0x280) addr:0x021328f0
func_ov047_02132b70 kind:function(arm,size=0xe8) addr:0x02132b70
func_ov047_02132c58 kind:function(arm,size=0x74) addr:0x02132c58
func_ov047_02132ccc kind:function(arm,size=0x80) addr:0x02132ccc
func_ov047_02132d4c kind:function(arm,size=0x68) addr:0x02132d4c
func_ov047_02132db4 kind:function(arm,size=0xd0) addr:0x02132db4
func_ov047_02132e84 kind:function(arm,size=0x14) addr:0x02132e84
_ZN16ActorTypeUnkGHOS11GetInstanceEv kind:function(arm,size=0xc) addr:0x02132e98
_ZN16ActorTypeUnkGHOS6CreateEv kind:function(arm,size=0x24) addr:0x02132ea4
_ZN16ActorTypeUnkGHOSC1Ev kind:function(arm,size=0x58) addr:0x02132ec8
_ZN12ActorUnkGHOS19func_ov047_02132f20Ev kind:function(arm,size=0x20) addr:0x02132f20
_ZN12ActorUnkGHOS19func_ov047_02132f40Ev kind:function(arm,size=0xcc) addr:0x02132f40
_ZN12ActorUnkGHOS19func_ov047_0213300cEv kind:function(arm,size=0x34) addr:0x0213300c
_ZN12ActorUnkGHOS19func_ov047_02133040Ev kind:function(arm,size=0x38) addr:0x02133040
_ZN12ActorUnkGHOS19func_ov047_02133078Ev kind:function(arm,size=0x2c) addr:0x02133078
_ZN12ActorUnkGHOS19func_ov047_021330a4Ev kind:function(arm,size=0x210) addr:0x021330a4
_ZN12ActorUnkGHOS19func_ov047_021332b4Ev kind:function(arm,size=0x14) addr:0x021332b4
_ZN12ActorUnkGHOS19func_ov047_021332c8Ev kind:function(arm,size=0x14) addr:0x021332c8
_ZN12ActorUnkGHOS19func_ov047_021332dcEv kind:function(arm,size=0x14) addr:0x021332dc
_ZN12ActorUnkGHOS19func_ov047_021332f0Ev kind:function(arm,size=0x14) addr:0x021332f0
_ZN12ActorUnkGHOS19func_ov047_02133304Ev kind:function(arm,size=0x94) addr:0x02133304
_ZN12ActorUnkGHOS19func_ov047_02133398Ev kind:function(arm,size=0x9c) addr:0x02133398
_ZN12ActorUnkGHOS19func_ov047_02133434Ev kind:function(arm,size=0x74) addr:0x02133434
_ZN12ActorUnkGHOS19func_ov047_021334a8Ev kind:function(arm,size=0x28) addr:0x021334a8
_ZN12ActorUnkGHOS19func_ov047_021334d0Ev kind:function(arm,size=0x58) addr:0x021334d0
_ZN12ActorUnkGHOS19func_ov047_02133528Ev kind:function(arm,size=0x960) addr:0x02133528
_ZN12ActorUnkGHOS19func_ov047_02133e88Ev kind:function(arm,size=0xf4) addr:0x02133e88
_ZN12ActorUnkGHOS19func_ov047_02133f7cEv kind:function(arm,size=0xa8) addr:0x02133f7c
_ZN12ActorUnkGHOS19func_ov047_02134024Ev kind:function(arm,size=0x2c) addr:0x02134024
_ZN12ActorUnkGHOS19func_ov047_02134050Ev kind:function(arm,size=0xa4) addr:0x02134050
_ZN12ActorUnkGHOS19func_ov047_021340f4Ev kind:function(arm,size=0x2a0) addr:0x021340f4
_ZN12ActorUnkGHOS19func_ov047_02134394Ev kind:function(arm,size=0x74) addr:0x02134394
_ZN12ActorUnkGHOS19func_ov047_02134408Ev kind:function(arm,size=0x9c) addr:0x02134408
_ZN12ActorUnkGHOS19func_ov047_021344a4Ev kind:function(arm,size=0x98) addr:0x021344a4
_ZN12ActorUnkGHOS19func_ov047_0213453cEv kind:function(arm,size=0x1d0) addr:0x0213453c
_ZN12ActorUnkGHOS19func_ov047_0213470cEv kind:function(arm,size=0x9c) addr:0x0213470c
_ZN12ActorUnkGHOS19func_ov047_021347a8Ev kind:function(arm,size=0x200) addr:0x021347a8
_ZN12ActorUnkGHOS19func_ov047_021349a8Ev kind:function(arm,size=0xbc) addr:0x021349a8
_ZN12ActorUnkGHOS19func_ov047_02134a64Ev kind:function(arm,size=0x184) addr:0x02134a64
_ZN12ActorUnkGHOS19func_ov047_02134be8Ev kind:function(arm,size=0xbc) addr:0x02134be8
_ZN12ActorUnkGHOS19func_ov047_02134ca4Ev kind:function(arm,size=0xbc) addr:0x02134ca4
_ZN12ActorUnkGHOS19func_ov047_02134d60Ev kind:function(arm,size=0x38) addr:0x02134d60
_ZN12ActorUnkGHOS19func_ov047_02134d98Ev kind:function(arm,size=0x124) addr:0x02134d98
_ZN12ActorUnkGHOS19func_ov047_02134ebcEv kind:function(arm,size=0x54) addr:0x02134ebc
_ZN12ActorUnkGHOS19func_ov047_02134f10Ev kind:function(arm,size=0x114) addr:0x02134f10
_ZN12ActorUnkGHOS19func_ov047_02135024Ev kind:function(arm,size=0xd0) addr:0x02135024
_ZN12ActorUnkGHOS19func_ov047_021350f4Ev kind:function(arm,size=0x78) addr:0x021350f4
_ZN12ActorUnkGHOS19func_ov047_0213516cEv kind:function(arm,size=0xa4) addr:0x0213516c
_ZN12ActorUnkGHOS19func_ov047_02135210Ev kind:function(arm,size=0x178) addr:0x02135210
_ZN12ActorUnkGHOS19func_ov047_02135388Ev kind:function(arm,size=0x1c4) addr:0x02135388
_ZN12ActorUnkGHOS19func_ov047_0213554cEv kind:function(arm,size=0x474) addr:0x0213554c
_ZN12ActorUnkGHOS19func_ov047_021359c0Ev kind:function(arm,size=0x88) addr:0x021359c0
_ZN12ActorUnkGHOS19func_ov047_02135a48Ev kind:function(arm,size=0x36c) addr:0x02135a48
_ZN12ActorUnkGHOS19func_ov047_02135db4Ev kind:function(arm,size=0x280) addr:0x02135db4
_ZN12ActorUnkGHOS19func_ov047_02136034Ev kind:function(arm,size=0xa8) addr:0x02136034
_ZN12ActorUnkGHOS19func_ov047_021360dcEv kind:function(arm,size=0x40) addr:0x021360dc
_ZN12ActorUnkGHOS19func_ov047_0213611cEv kind:function(arm,size=0x90) addr:0x0213611c
_ZN12ActorUnkGHOS19func_ov047_021361acEv kind:function(arm,size=0xc) addr:0x021361ac
_ZN12ActorUnkGHOS19func_ov047_021361b8Ev kind:function(arm,size=0x34) addr:0x021361b8
_ZN12ActorUnkGHOS19func_ov047_021361ecEv kind:function(arm,size=0xe4) addr:0x021361ec
_ZN12ActorUnkGHOS19func_ov047_021362d0Ev kind:function(arm,size=0x14) addr:0x021362d0
_ZN12ActorUnkGHOS19func_ov047_021362e4Ev kind:function(arm,size=0x58) addr:0x021362e4
_ZN12ActorUnkGHOS19func_ov047_0213633cEv kind:function(arm,size=0xb4) addr:0x0213633c
_ZN12ActorUnkGHOS19func_ov047_021363f0Ev kind:function(arm,size=0x78) addr:0x021363f0
_ZN12ActorUnkGHOS19func_ov047_02136468Ev kind:function(arm,size=0xa4) addr:0x02136468
_ZN12ActorUnkGHOS19func_ov047_0213650cEv kind:function(arm,size=0x2c) addr:0x0213650c
_ZN12ActorUnkGHOS19func_ov047_02136538Ev kind:function(arm,size=0x58) addr:0x02136538
_ZN12ActorUnkGHOS19func_ov047_02136590Ev kind:function(arm,size=0xf4) addr:0x02136590
_ZN12ActorUnkGHOS19func_ov047_02136684Ev kind:function(arm,size=0x318) addr:0x02136684
_ZN12ActorUnkGHOS19func_ov047_0213699cEv kind:function(arm,size=0x28) addr:0x0213699c
_ZN12ActorUnkGHOS19func_ov047_021369c4Ev kind:function(arm,size=0xdc) addr:0x021369c4
_ZN12ActorUnkGHOS19func_ov047_02136aa0Ev kind:function(arm,size=0x24) addr:0x02136aa0
_ZN12ActorUnkGHOS19func_ov047_02136ac4Ev kind:function(arm,size=0x10) addr:0x02136ac4
_ZN12ActorUnkGHOS19func_ov047_02136ad4Ev kind:function(arm,size=0x8) addr:0x02136ad4
_ZN12ActorUnkGHOS19func_ov047_02136adcEv kind:function(arm,size=0x24) addr:0x02136adc
_ZN12ActorUnkGHOS19func_ov047_02136b00Ev kind:function(arm,size=0x2c) addr:0x02136b00
_ZN12ActorUnkGHOS19func_ov047_02136b2cEv kind:function(arm,size=0x1c) addr:0x02136b2c
_ZN12ActorUnkGHOS19func_ov047_02136b48Ev kind:function(arm,size=0x1c) addr:0x02136b48
_ZN12ActorUnkGHOS19func_ov047_02136b64Ev kind:function(arm,size=0x1c) addr:0x02136b64
_ZN12ActorUnkGHOS19func_ov047_02136b80Ev kind:function(arm,size=0x1c) addr:0x02136b80
_ZN12ActorUnkGHOS19func_ov047_02136b9cEv kind:function(arm,size=0x1c) addr:0x02136b9c
_ZN16ActorTypeUnkGHOSD1Ev kind:function(arm,size=0x14) addr:0x02136bb8
_ZN16ActorTypeUnkEVCH11GetInstanceEv kind:function(arm,size=0xc) addr:0x02136bcc
_ZN16ActorTypeUnkEVCH6CreateEv kind:function(arm,size=0x24) addr:0x02136bd8
_ZN16ActorTypeUnkEVCHC1Ev kind:function(arm,size=0x28) addr:0x02136bfc
_ZN12ActorUnkEVCH19func_ov047_02136c24Ev kind:function(arm,size=0x28) addr:0x02136c24
_ZN12ActorUnkEVCH19func_ov047_02136c4cEv kind:function(arm,size=0x8) addr:0x02136c4c
_ZN12ActorUnkEVCH19func_ov047_02136c54Ev kind:function(arm,size=0x3c) addr:0x02136c54
_ZN12ActorUnkEVCH19func_ov047_02136c90Ev kind:function(arm,size=0x7c) addr:0x02136c90
_ZN12ActorUnkEVCH19func_ov047_02136d0cEv kind:function(arm,size=0x14) addr:0x02136d0c
_ZN12ActorUnkEVCH19func_ov047_02136d20Ev kind:function(arm,size=0x14c) addr:0x02136d20
_ZN12ActorUnkEVCH19func_ov047_02136e6cEv kind:function(arm,size=0x14) addr:0x02136e6c
_ZN12ActorUnkEVCH19func_ov047_02136e80Ev kind:function(arm,size=0x1c) addr:0x02136e80
_ZN16ActorTypeUnkEVCHD1Ev kind:function(arm,size=0x14) addr:0x02136e9c
_ZN16ActorTypeUnkFLDK11GetInstanceEv kind:function(arm,size=0xc) addr:0x02136eb0
_ZN16ActorTypeUnkFLDK6CreateEv kind:function(arm,size=0x24) addr:0x02136ebc
_ZN16ActorTypeUnkFLDKC1Ev kind:function(arm,size=0x28) addr:0x02136ee0
_ZN12ActorUnkFLDK19func_ov047_02136f08Ev kind:function(arm,size=0x44) addr:0x02136f08
_ZN12ActorUnkFLDK19func_ov047_02136f4cEv kind:function(arm,size=0xcc) addr:0x02136f4c
_ZN12ActorUnkFLDK19func_ov047_02137018Ev kind:function(arm,size=0x84) addr:0x02137018
_ZN12ActorUnkFLDK19func_ov047_0213709cEv kind:function(arm,size=0x20) addr:0x0213709c
_ZN12ActorUnkFLDK19func_ov047_021370bcEv kind:function(arm,size=0x28) addr:0x021370bc
_ZN16ActorTypeUnkFLDKD1Ev kind:function(arm,size=0x14) addr:0x021370e4
func_ov047_021370f8 kind:function(arm,size=0x60) addr:0x021370f8
func_ov047_02137158 kind:function(arm,size=0x30) addr:0x02137158
_ZN16ActorTypeUnkDLTG11GetInstanceEv kind:function(arm,size=0xc) addr:0x02137188
_ZN16ActorTypeUnkDLTG6CreateEv kind:function(arm,size=0x24) addr:0x02137194
_ZN16ActorTypeUnkDLTGC1Ev kind:function(arm,size=0x28) addr:0x021371b8
_ZN12ActorUnkDLTG19func_ov047_021371e0Ev kind:function(arm,size=0x2c) addr:0x021371e0
_ZN12ActorUnkDLTG19func_ov047_0213720cEv kind:function(arm,size=0x48) addr:0x0213720c
_ZN12ActorUnkDLTG19func_ov047_02137254Ev kind:function(arm,size=0x50) addr:0x02137254
_ZN12ActorUnkDLTG19func_ov047_021372a4Ev kind:function(arm,size=0x7c) addr:0x021372a4
_ZN12ActorUnkDLTG19func_ov047_02137320Ev kind:function(arm,size=0x2c) addr:0x02137320
_ZN12ActorUnkDLTG19func_ov047_0213734cEv kind:function(arm,size=0x1c) addr:0x0213734c
_ZN12ActorUnkDLTG19func_ov047_02137368Ev kind:function(arm,size=0x1d4) addr:0x02137368
_ZN16ActorTypeUnkDLTGD1Ev kind:function(arm,size=0x14) addr:0x0213753c
func_ov047_02137550 kind:function(arm,size=0x10) addr:0x02137550
func_ov047_02137560 kind:function(arm,size=0x8c) addr:0x02137560
func_ov047_021375ec kind:function(arm,size=0x8c) addr:0x021375ec
func_ov047_02137678 kind:function(arm,size=0x98) addr:0x02137678
func_ov047_02137710 kind:function(arm,size=0x70) addr:0x02137710
data_ov047_02137780 kind:data(any) addr:0x02137780
data_ov047_02137790 kind:data(any) addr:0x02137790
data_ov047_02137794 kind:data(any) addr:0x02137794
data_ov047_0213779c kind:data(any) addr:0x0213779c
data_ov047_021377a4 kind:data(any) addr:0x021377a4
__sinit_ov047_021377d4 kind:function(arm,size=0x18) addr:0x021377d4
__sinit_ov047_021377ec kind:function(arm,size=0x50) addr:0x021377ec
__sinit_ov047_0213783c kind:function(arm,size=0x50) addr:0x0213783c
__sinit_ov047_0213788c kind:function(arm,size=0x50) addr:0x0213788c
__sinit_ov047_021378dc kind:function(arm,size=0x50) addr:0x021378dc
.p__sinit_ov047_021377d4 kind:data(word) addr:0x0213792c
.p__sinit_ov047_021377ec kind:data(word) addr:0x02137930
.p__sinit_ov047_0213783c kind:data(word) addr:0x02137934
.p__sinit_ov047_0213788c kind:data(word) addr:0x02137938
.p__sinit_ov047_021378dc kind:data(word) addr:0x0213793c
data_ov047_02137960 kind:data(any) addr:0x02137960
data_ov047_0213796c kind:data(any) addr:0x0213796c
data_ov047_02137978 kind:data(any) addr:0x02137978
data_ov047_02137984 kind:data(any) addr:0x02137984
data_ov047_0213798c kind:data(any) addr:0x0213798c
data_ov047_021379ac kind:data(any) addr:0x021379ac
data_ov047_021379c8 kind:data(any) addr:0x021379c8
_ZTV19data_ov047_021379dc kind:data(any) addr:0x021379dc
data_ov047_02137a08 kind:data(any) addr:0x02137a08
data_ov047_02137a34 kind:data(any) addr:0x02137a34
data_ov047_02137a7c kind:data(any) addr:0x02137a7c
data_ov047_02137ac0 kind:data(any) addr:0x02137ac0
data_ov047_02137b14 kind:data(any) addr:0x02137b14 ambiguous
data_ov047_02137b20 kind:data(any) addr:0x02137b20
_ZTV19data_ov047_02137b80 kind:data(any) addr:0x02137b80
data_ov047_02137be0 kind:data(any) addr:0x02137be0
data_ov047_02137bf8 kind:data(any) addr:0x02137bf8
data_ov047_02137c10 kind:data(any) addr:0x02137c10
data_ov047_02137c28 kind:data(any) addr:0x02137c28
data_ov047_02137c40 kind:data(any) addr:0x02137c40
data_ov047_02137c58 kind:data(any) addr:0x02137c58
_ZTV19data_ov047_02137c70 kind:data(any) addr:0x02137c70
_ZTV19data_ov047_02137c94 kind:data(any) addr:0x02137c94
_ZTV19data_ov047_02137cf0 kind:data(any) addr:0x02137cf0
_ZTV19data_ov047_02137d14 kind:data(any) addr:0x02137d14
_ZTV19data_ov047_02137d70 kind:data(any) addr:0x02137d70
_ZTV19data_ov047_02137d94 kind:data(any) addr:0x02137d94
data_ov047_02137e00 kind:bss addr:0x02137e00
data_ov047_02137e04 kind:bss addr:0x02137e04
data_ov047_02137e10 kind:bss addr:0x02137e10
data_ov047_02137e2c kind:bss addr:0x02137e2c ambiguous
data_ov047_02137e74 kind:bss addr:0x02137e74 ambiguous
data_ov047_02137ee8 kind:bss addr:0x02137ee8
data_ov047_02137eec kind:bss addr:0x02137eec
data_ov047_02137ef8 kind:bss addr:0x02137ef8
data_ov047_02137f34 kind:bss addr:0x02137f34
data_ov047_02137f38 kind:bss addr:0x02137f38
data_ov047_02137f44 kind:bss addr:0x02137f44
data_ov047_02137f80 kind:bss addr:0x02137f80
data_ov047_02137f84 kind:bss addr:0x02137f84
data_ov047_02137f90 kind:bss addr:0x02137f90
