_ZN19ActorProfileUnkWTTH10GetProfileEv kind:function(arm,size=0xc) addr:0x02125280
_ZN19ActorProfileUnkWTTH6CreateEv kind:function(arm,size=0x24) addr:0x0212528c
_ZN19ActorProfileUnkWTTHC1Ev kind:function(arm,size=0x68) addr:0x021252b0
_ZN12ActorUnkWTTHC1Ev kind:function(arm,size=0x170) addr:0x02125318
_ZN12ActorUnkWTTH19func_ov046_02125488Ev kind:function(arm,size=0x14) addr:0x02125488
_ZN12ActorUnkWTTH19func_ov046_0212549cEv kind:function(arm,size=0xa8) addr:0x0212549c
_ZN12ActorUnkWTTH19func_ov046_02125544Ev kind:function(arm,size=0x24) addr:0x02125544
_ZN12ActorUnkWTTH19func_ov046_02125568Ev kind:function(arm,size=0x24) addr:0x02125568
_ZN12ActorUnkWTTH19func_ov046_0212558cEv kind:function(arm,size=0x34) addr:0x0212558c
_ZN12ActorUnkWTTH19func_ov046_021255c0Ev kind:function(arm,size=0x3c) addr:0x021255c0
_ZN12ActorUnkWTTH19func_ov046_021255fcEv kind:function(arm,size=0x10) addr:0x021255fc
_ZN12ActorUnkWTTH19func_ov046_0212560cEv kind:function(arm,size=0x6c) addr:0x0212560c
_ZN12ActorUnkWTTH19func_ov046_02125678Ev kind:function(arm,size=0x1c) addr:0x02125678
_ZN12ActorUnkWTTH19func_ov046_02125694Ev kind:function(arm,size=0x4) addr:0x02125694
_ZN12ActorUnkWTTH19func_ov046_02125698Ev kind:function(arm,size=0xec) addr:0x02125698
_ZN12ActorUnkWTTH19func_ov046_02125784Ev kind:function(arm,size=0x114) addr:0x02125784
_ZN12ActorUnkWTTH19func_ov046_02125898Ev kind:function(arm,size=0x1c) addr:0x02125898
_ZN12ActorUnkWTTH19func_ov046_021258b4Ev kind:function(arm,size=0xc0) addr:0x021258b4
_ZN12ActorUnkWTTH19func_ov046_02125974Ev kind:function(arm,size=0x38) addr:0x02125974
_ZN12ActorUnkWTTH19func_ov046_021259acEv kind:function(arm,size=0x88) addr:0x021259ac
_ZN12ActorUnkWTTH19func_ov046_02125a34Ev kind:function(arm,size=0x1f0) addr:0x02125a34
_ZN12ActorUnkWTTH19func_ov046_02125c24Ev kind:function(arm,size=0x2c) addr:0x02125c24
_ZN12ActorUnkWTTH19func_ov046_02125c50Ev kind:function(arm,size=0x88) addr:0x02125c50
_ZN12ActorUnkWTTH19func_ov046_02125cd8Ev kind:function(arm,size=0x180) addr:0x02125cd8
_ZN12ActorUnkWTTH19func_ov046_02125e58Ev kind:function(arm,size=0x2c) addr:0x02125e58
_ZN12ActorUnkWTTH19func_ov046_02125e84Ev kind:function(arm,size=0xf4) addr:0x02125e84
_ZN12ActorUnkWTTH19func_ov046_02125f78Ev kind:function(arm,size=0xa4) addr:0x02125f78
_ZN12ActorUnkWTTH19func_ov046_0212601cEv kind:function(arm,size=0x44) addr:0x0212601c
_ZN12ActorUnkWTTH19func_ov046_02126060Ev kind:function(arm,size=0x9c) addr:0x02126060
_ZN12ActorUnkWTTH19func_ov046_021260fcEv kind:function(arm,size=0x9c) addr:0x021260fc
_ZN12ActorUnkWTTH19func_ov046_02126198Ev kind:function(arm,size=0x44) addr:0x02126198
_ZN12ActorUnkWTTH19func_ov046_021261dcEv kind:function(arm,size=0x90) addr:0x021261dc
_ZN12ActorUnkWTTH19func_ov046_0212626cEv kind:function(arm,size=0x11c) addr:0x0212626c
_ZN12ActorUnkWTTH19func_ov046_02126388Ev kind:function(arm,size=0x3c) addr:0x02126388
_ZN12ActorUnkWTTH19func_ov046_021263c4Ev kind:function(arm,size=0x204) addr:0x021263c4
_ZN12ActorUnkWTTH19func_ov046_021265c8Ev kind:function(arm,size=0x42c) addr:0x021265c8
_ZN12ActorUnkWTTH19func_ov046_021269f4Ev kind:function(arm,size=0x2c) addr:0x021269f4
_ZN12ActorUnkWTTH19func_ov046_02126a20Ev kind:function(arm,size=0x78) addr:0x02126a20
_ZN12ActorUnkWTTH19func_ov046_02126a98Ev kind:function(arm,size=0x1c) addr:0x02126a98
_ZN12ActorUnkWTTH19func_ov046_02126ab4Ev kind:function(arm,size=0x24) addr:0x02126ab4
_ZN12ActorUnkWTTH19func_ov046_02126ad8Ev kind:function(arm,size=0x2c) addr:0x02126ad8
_ZN12ActorUnkWTTH19func_ov046_02126b04Ev kind:function(arm,size=0xc) addr:0x02126b04
_ZN12ActorUnkWTTHD0Ev kind:function(arm,size=0x1c) addr:0x02126b10
_ZN12ActorUnkWTTHD1Ev kind:function(arm,size=0x48) addr:0x02126b2c
_ZN12ActorUnkWTTH19func_ov046_02126b74Ev kind:function(arm,size=0x50) addr:0x02126b74
_ZN19ActorProfileUnkWTTHD1Ev kind:function(arm,size=0x14) addr:0x02126bc4
_ZN19ActorProfileUnkWTH210GetProfileEv kind:function(arm,size=0xc) addr:0x02126bd8
_ZN19ActorProfileUnkWTH26CreateEv kind:function(arm,size=0x24) addr:0x02126be4
_ZN19ActorProfileUnkWTH2C1Ev kind:function(arm,size=0x50) addr:0x02126c08
_ZN12ActorUnkWTH2C1Ev kind:function(arm,size=0x23c) addr:0x02126c58
_ZN12ActorUnkWTH219func_ov046_02126e94Ev kind:function(arm,size=0x80) addr:0x02126e94
_ZN12ActorUnkWTH2D0Ev kind:function(arm,size=0x88) addr:0x02126f14
_ZN12ActorUnkWTH219func_ov046_02126f9cEv kind:function(arm,size=0xc4) addr:0x02126f9c
_ZN12ActorUnkWTH219func_ov046_02127060Ev kind:function(arm,size=0x68) addr:0x02127060
_ZN12ActorUnkWTH219func_ov046_021270c8Ev kind:function(arm,size=0xc0) addr:0x021270c8
_ZN12ActorUnkWTH219func_ov046_02127188Ev kind:function(arm,size=0x30) addr:0x02127188
_ZN12ActorUnkWTH219func_ov046_021271b8Ev kind:function(arm,size=0x30) addr:0x021271b8
_ZN12ActorUnkWTH219func_ov046_021271e8Ev kind:function(arm,size=0x90) addr:0x021271e8
_ZN12ActorUnkWTH219func_ov046_02127278Ev kind:function(arm,size=0x60) addr:0x02127278
_ZN12ActorUnkWTH219func_ov046_021272d8Ev kind:function(arm,size=0x60) addr:0x021272d8
_ZN12ActorUnkWTH219func_ov046_02127338Ev kind:function(arm,size=0x48) addr:0x02127338
_ZN12ActorUnkWTH219func_ov046_02127380Ev kind:function(arm,size=0xc0) addr:0x02127380
_ZN12ActorUnkWTH219func_ov046_02127440Ev kind:function(arm,size=0x7c) addr:0x02127440
_ZN12ActorUnkWTH219func_ov046_021274bcEv kind:function(arm,size=0xbc) addr:0x021274bc
_ZN12ActorUnkWTH219func_ov046_02127578Ev kind:function(arm,size=0xec) addr:0x02127578
_ZN12ActorUnkWTH219func_ov046_02127664Ev kind:function(arm,size=0x84) addr:0x02127664
_ZN12ActorUnkWTH219func_ov046_021276e8Ev kind:function(arm,size=0xcc) addr:0x021276e8
_ZN12ActorUnkWTH219func_ov046_021277b4Ev kind:function(arm,size=0xa0) addr:0x021277b4
_ZN12ActorUnkWTH219func_ov046_02127854Ev kind:function(arm,size=0x3c) addr:0x02127854
_ZN12ActorUnkWTH219func_ov046_02127890Ev kind:function(arm,size=0x90) addr:0x02127890
_ZN12ActorUnkWTH219func_ov046_02127920Ev kind:function(arm,size=0x3c) addr:0x02127920
_ZN12ActorUnkWTH219func_ov046_0212795cEv kind:function(arm,size=0x2b4) addr:0x0212795c
_ZN12ActorUnkWTH219func_ov046_02127c10Ev kind:function(arm,size=0x444) addr:0x02127c10
_ZN12ActorUnkWTH219func_ov046_02128054Ev kind:function(arm,size=0x2c) addr:0x02128054
_ZN12ActorUnkWTH219func_ov046_02128080Ev kind:function(arm,size=0xac) addr:0x02128080
_ZN12ActorUnkWTH219func_ov046_0212812cEv kind:function(arm,size=0x34) addr:0x0212812c
_ZN12ActorUnkWTH219func_ov046_02128160Ev kind:function(arm,size=0x1c) addr:0x02128160
_ZN12ActorUnkWTH219func_ov046_0212817cEv kind:function(arm,size=0x184) addr:0x0212817c
_ZN19ActorProfileUnkWTH2D1Ev kind:function(arm,size=0x14) addr:0x02128300
_ZN19ActorProfileUnkWTH310GetProfileEv kind:function(arm,size=0xc) addr:0x02128314
_ZN19ActorProfileUnkWTH36CreateEv kind:function(arm,size=0x24) addr:0x02128320
_ZN19ActorProfileUnkWTH3C1Ev kind:function(arm,size=0x4c) addr:0x02128344
_ZN12ActorUnkWTH3C1Ev kind:function(arm,size=0x238) addr:0x02128390
_ZN12ActorUnkWTH319func_ov046_021285c8Ev kind:function(arm,size=0x70) addr:0x021285c8
_ZN12ActorUnkWTH3D0Ev kind:function(arm,size=0x78) addr:0x02128638
_ZN12ActorUnkWTH319func_ov046_021286b0Ev kind:function(arm,size=0xfc) addr:0x021286b0
_ZN12ActorUnkWTH319func_ov046_021287acEv kind:function(arm,size=0x5c) addr:0x021287ac
_ZN12ActorUnkWTH319func_ov046_02128808Ev kind:function(arm,size=0x7c) addr:0x02128808
_ZN12ActorUnkWTH319func_ov046_02128884Ev kind:function(arm,size=0x30) addr:0x02128884
_ZN12ActorUnkWTH319func_ov046_021288b4Ev kind:function(arm,size=0x80) addr:0x021288b4
_ZN12ActorUnkWTH319func_ov046_02128934Ev kind:function(arm,size=0xf8) addr:0x02128934
_ZN12ActorUnkWTH319func_ov046_02128a2cEv kind:function(arm,size=0x1c) addr:0x02128a2c
_ZN12ActorUnkWTH319func_ov046_02128a48Ev kind:function(arm,size=0x60) addr:0x02128a48
_ZN12ActorUnkWTH319func_ov046_02128aa8Ev kind:function(arm,size=0x10) addr:0x02128aa8
_ZN12ActorUnkWTH319func_ov046_02128ab8Ev kind:function(arm,size=0x84) addr:0x02128ab8
_ZN12ActorUnkWTH319func_ov046_02128b3cEv kind:function(arm,size=0x8c) addr:0x02128b3c
_ZN12ActorUnkWTH319func_ov046_02128bc8Ev kind:function(arm,size=0x40) addr:0x02128bc8
_ZN12ActorUnkWTH319func_ov046_02128c08Ev kind:function(arm,size=0x5c) addr:0x02128c08
_ZN12ActorUnkWTH319func_ov046_02128c64Ev kind:function(arm,size=0x48) addr:0x02128c64
_ZN12ActorUnkWTH319func_ov046_02128cacEv kind:function(arm,size=0xa0) addr:0x02128cac
_ZN12ActorUnkWTH319func_ov046_02128d4cEv kind:function(arm,size=0x3c) addr:0x02128d4c
_ZN12ActorUnkWTH319func_ov046_02128d88Ev kind:function(arm,size=0x90) addr:0x02128d88
_ZN12ActorUnkWTH319func_ov046_02128e18Ev kind:function(arm,size=0x188) addr:0x02128e18
_ZN12ActorUnkWTH319func_ov046_02128fa0Ev kind:function(arm,size=0x88) addr:0x02128fa0
_ZN12ActorUnkWTH319func_ov046_02129028Ev kind:function(arm,size=0x190) addr:0x02129028
_ZN12ActorUnkWTH319func_ov046_021291b8Ev kind:function(arm,size=0x2f8) addr:0x021291b8
_ZN12ActorUnkWTH319func_ov046_021294b0Ev kind:function(arm,size=0x2c) addr:0x021294b0
_ZN12ActorUnkWTH319func_ov046_021294dcEv kind:function(arm,size=0x50) addr:0x021294dc
_ZN12ActorUnkWTH319func_ov046_0212952cEv kind:function(arm,size=0x34) addr:0x0212952c
_ZN12ActorUnkWTH319func_ov046_02129560Ev kind:function(arm,size=0x64) addr:0x02129560
_ZN12ActorUnkWTH319func_ov046_021295c4Ev kind:function(arm,size=0x78) addr:0x021295c4
_ZN19ActorProfileUnkWTH3D1Ev kind:function(arm,size=0x14) addr:0x0212963c
_ZN19ActorProfileUnkWBTN10GetProfileEv kind:function(arm,size=0xc) addr:0x02129650
_ZN19ActorProfileUnkWBTN6CreateEv kind:function(arm,size=0x24) addr:0x0212965c
_ZN19ActorProfileUnkWBTNC1Ev kind:function(arm,size=0x50) addr:0x02129680
_ZN12ActorUnkWBTNC1Ev kind:function(arm,size=0x140) addr:0x021296d0
_ZN12ActorUnkWBTN19func_ov046_02129810Ev kind:function(arm,size=0x14) addr:0x02129810
_ZN12ActorUnkWBTN19func_ov046_02129824Ev kind:function(arm,size=0x14) addr:0x02129824
_ZN12ActorUnkWBTND1Ev kind:function(arm,size=0x5c) addr:0x02129838
_ZN12ActorUnkWBTND0Ev kind:function(arm,size=0x64) addr:0x02129894
_ZN12ActorUnkWBTN19func_ov046_021298f8Ev kind:function(arm,size=0x90) addr:0x021298f8
_ZN12ActorUnkWBTN19func_ov046_02129988Ev kind:function(arm,size=0xc) addr:0x02129988
_ZN12ActorUnkWBTN19func_ov046_02129994Ev kind:function(arm,size=0x68) addr:0x02129994
_ZN12ActorUnkWBTN19func_ov046_021299fcEv kind:function(arm,size=0x30) addr:0x021299fc
_ZN12ActorUnkWBTN19func_ov046_02129a2cEv kind:function(arm,size=0xac) addr:0x02129a2c
_ZN12ActorUnkWBTN19func_ov046_02129ad8Ev kind:function(arm,size=0x8) addr:0x02129ad8
_ZN12ActorUnkWBTN19func_ov046_02129ae0Ev kind:function(arm,size=0xc) addr:0x02129ae0
_ZN12ActorUnkWBTN19func_ov046_02129aecEv kind:function(arm,size=0xb0) addr:0x02129aec
_ZN12ActorUnkWBTN19func_ov046_02129b9cEv kind:function(arm,size=0x15c) addr:0x02129b9c
_ZN12ActorUnkWBTN19func_ov046_02129cf8Ev kind:function(arm,size=0x54) addr:0x02129cf8
_ZN12ActorUnkWBTN19func_ov046_02129d4cEv kind:function(arm,size=0x238) addr:0x02129d4c
_ZN12ActorUnkWBTN19func_ov046_02129f84Ev kind:function(arm,size=0xe8) addr:0x02129f84
_ZN12ActorUnkWBTN19func_ov046_0212a06cEv kind:function(arm,size=0x4) addr:0x0212a06c
_ZN12ActorUnkWBTN19func_ov046_0212a070Ev kind:function(arm,size=0x44) addr:0x0212a070
_ZN12ActorUnkWBTN19func_ov046_0212a0b4Ev kind:function(arm,size=0x38) addr:0x0212a0b4
_ZN12ActorUnkWBTN19func_ov046_0212a0ecEv kind:function(arm,size=0x7c) addr:0x0212a0ec
_ZN12ActorUnkWBTN19func_ov046_0212a168Ev kind:function(arm,size=0x30) addr:0x0212a168
_ZN12ActorUnkWBTN19func_ov046_0212a198Ev kind:function(arm,size=0x11c) addr:0x0212a198
_ZN12ActorUnkWBTN19func_ov046_0212a2b4Ev kind:function(arm,size=0x58) addr:0x0212a2b4
_ZN12ActorUnkWBTN19func_ov046_0212a30cEv kind:function(arm,size=0x1c) addr:0x0212a30c
_ZN12ActorUnkWBTN19func_ov046_0212a328Ev kind:function(arm,size=0x10) addr:0x0212a328
_ZN12ActorUnkWBTN19func_ov046_0212a338Ev kind:function(arm,size=0x40) addr:0x0212a338
_ZN12ActorUnkWBTN19func_ov046_0212a378Ev kind:function(arm,size=0x6c) addr:0x0212a378
_ZN12ActorUnkWBTN19func_ov046_0212a3e4Ev kind:function(arm,size=0x34) addr:0x0212a3e4
_ZN12ActorUnkWBTN19func_ov046_0212a418Ev kind:function(arm,size=0x3c) addr:0x0212a418
_ZN12ActorUnkWBTN19func_ov046_0212a454Ev kind:function(arm,size=0x1c) addr:0x0212a454
_ZN12ActorUnkWBTN19func_ov046_0212a470Ev kind:function(arm,size=0x40) addr:0x0212a470
_ZN12ActorUnkWBTN19func_ov046_0212a4b0Ev kind:function(arm,size=0x3c) addr:0x0212a4b0
_ZN12ActorUnkWBTN19func_ov046_0212a4ecEv kind:function(arm,size=0x40) addr:0x0212a4ec
_ZN12ActorUnkWBTN19func_ov046_0212a52cEv kind:function(arm,size=0x14) addr:0x0212a52c
_ZN12ActorUnkWBTN19func_ov046_0212a540Ev kind:function(arm,size=0x20) addr:0x0212a540
_ZN12ActorUnkWBTN19func_ov046_0212a560Ev kind:function(arm,size=0x30) addr:0x0212a560
_ZN12ActorUnkWBTN19func_ov046_0212a590Ev kind:function(arm,size=0x44) addr:0x0212a590
_ZN12ActorUnkWBTN19func_ov046_0212a5d4Ev kind:function(arm,size=0x80) addr:0x0212a5d4
_ZN12ActorUnkWBTN19func_ov046_0212a654Ev kind:function(arm,size=0x1c) addr:0x0212a654
_ZN12ActorUnkWBTN19func_ov046_0212a670Ev kind:function(arm,size=0x1c) addr:0x0212a670
_ZN19ActorProfileUnkWBTND1Ev kind:function(arm,size=0x14) addr:0x0212a68c
_ZN19ActorProfileUnkWBN210GetProfileEv kind:function(arm,size=0xc) addr:0x0212a6a0
_ZN19ActorProfileUnkWBN26CreateEv kind:function(arm,size=0x24) addr:0x0212a6ac
_ZN19ActorProfileUnkWBN2C1Ev kind:function(arm,size=0x44) addr:0x0212a6d0
_ZN12ActorUnkWBN219func_ov046_0212a714Ev kind:function(arm,size=0x1c) addr:0x0212a714
_ZN12ActorUnkWBN2C1Ev kind:function(arm,size=0x128) addr:0x0212a730
_ZN12ActorUnkWBN219func_ov046_0212a858Ev kind:function(arm,size=0x14) addr:0x0212a858
_ZN12ActorUnkWBN2D1Ev kind:function(arm,size=0x54) addr:0x0212a86c
_ZN12ActorUnkWBN2D0Ev kind:function(arm,size=0x5c) addr:0x0212a8c0
_ZN12ActorUnkWBN219func_ov046_0212a91cEv kind:function(arm,size=0x80) addr:0x0212a91c
_ZN12ActorUnkWBN219func_ov046_0212a99cEv kind:function(arm,size=0x34) addr:0x0212a99c
_ZN12ActorUnkWBN219func_ov046_0212a9d0Ev kind:function(arm,size=0x24) addr:0x0212a9d0
_ZN12ActorUnkWBN219func_ov046_0212a9f4Ev kind:function(arm,size=0xac) addr:0x0212a9f4
_ZN12ActorUnkWBN219func_ov046_0212aaa0Ev kind:function(arm,size=0x8) addr:0x0212aaa0
_ZN12ActorUnkWBN219func_ov046_0212aaa8Ev kind:function(arm,size=0xc) addr:0x0212aaa8
_ZN12ActorUnkWBN219func_ov046_0212aab4Ev kind:function(arm,size=0x70) addr:0x0212aab4
_ZN12ActorUnkWBN219func_ov046_0212ab24Ev kind:function(arm,size=0x1b4) addr:0x0212ab24
_ZN12ActorUnkWBN219func_ov046_0212acd8Ev kind:function(arm,size=0x44) addr:0x0212acd8
_ZN12ActorUnkWBN219func_ov046_0212ad1cEv kind:function(arm,size=0x1ec) addr:0x0212ad1c
_ZN12ActorUnkWBN219func_ov046_0212af08Ev kind:function(arm,size=0xe8) addr:0x0212af08
_ZN12ActorUnkWBN219func_ov046_0212aff0Ev kind:function(arm,size=0x4) addr:0x0212aff0
_ZN12ActorUnkWBN219func_ov046_0212aff4Ev kind:function(arm,size=0x44) addr:0x0212aff4
_ZN12ActorUnkWBN219func_ov046_0212b038Ev kind:function(arm,size=0x38) addr:0x0212b038
_ZN12ActorUnkWBN219func_ov046_0212b070Ev kind:function(arm,size=0x74) addr:0x0212b070
_ZN12ActorUnkWBN219func_ov046_0212b0e4Ev kind:function(arm,size=0x30) addr:0x0212b0e4
_ZN12ActorUnkWBN219func_ov046_0212b114Ev kind:function(arm,size=0xb0) addr:0x0212b114
_ZN12ActorUnkWBN219func_ov046_0212b1c4Ev kind:function(arm,size=0x14) addr:0x0212b1c4
_ZN12ActorUnkWBN219func_ov046_0212b1d8Ev kind:function(arm,size=0x1c) addr:0x0212b1d8
_ZN12ActorUnkWBN219func_ov046_0212b1f4Ev kind:function(arm,size=0x10) addr:0x0212b1f4
_ZN12ActorUnkWBN219func_ov046_0212b204Ev kind:function(arm,size=0x40) addr:0x0212b204
_ZN12ActorUnkWBN219func_ov046_0212b244Ev kind:function(arm,size=0x38) addr:0x0212b244
_ZN12ActorUnkWBN219func_ov046_0212b27cEv kind:function(arm,size=0x34) addr:0x0212b27c
_ZN12ActorUnkWBN219func_ov046_0212b2b0Ev kind:function(arm,size=0x3c) addr:0x0212b2b0
_ZN12ActorUnkWBN219func_ov046_0212b2ecEv kind:function(arm,size=0x1c) addr:0x0212b2ec
_ZN12ActorUnkWBN219func_ov046_0212b308Ev kind:function(arm,size=0x40) addr:0x0212b308
_ZN12ActorUnkWBN219func_ov046_0212b348Ev kind:function(arm,size=0x3c) addr:0x0212b348
_ZN12ActorUnkWBN219func_ov046_0212b384Ev kind:function(arm,size=0x40) addr:0x0212b384
_ZN12ActorUnkWBN219func_ov046_0212b3c4Ev kind:function(arm,size=0x14) addr:0x0212b3c4
_ZN12ActorUnkWBN219func_ov046_0212b3d8Ev kind:function(arm,size=0x1c) addr:0x0212b3d8
_ZN19ActorProfileUnkWBN2D1Ev kind:function(arm,size=0x14) addr:0x0212b3f4
func_ov046_0212b408 kind:function(arm,size=0x20) addr:0x0212b408
func_ov046_0212b428 kind:function(arm,size=0x104) addr:0x0212b428
func_ov046_0212b52c kind:function(arm,size=0x30c) addr:0x0212b52c
data_ov046_0212b854 kind:data(any) addr:0x0212b854
data_ov046_0212b878 kind:data(any) addr:0x0212b878
data_ov046_0212b884 kind:data(any) addr:0x0212b884
data_ov046_0212b8a4 kind:data(any) addr:0x0212b8a4
data_ov046_0212b9d4 kind:data(any) addr:0x0212b9d4
data_ov046_0212b9d8 kind:data(any) addr:0x0212b9d8
data_ov046_0212b9e0 kind:data(any) addr:0x0212b9e0
data_ov046_0212b9e8 kind:data(any) addr:0x0212b9e8
data_ov046_0212ba00 kind:data(any) addr:0x0212ba00
data_ov046_0212ba20 kind:data(any) addr:0x0212ba20
data_ov046_0212ba68 kind:data(any) addr:0x0212ba68
data_ov046_0212bac8 kind:data(any) addr:0x0212bac8
data_ov046_0212bad4 kind:data(any) addr:0x0212bad4
__sinit_ov046_0212bae0 kind:function(arm,size=0x88) addr:0x0212bae0
__sinit_ov046_0212bb68 kind:function(arm,size=0xb8) addr:0x0212bb68
__sinit_ov046_0212bc20 kind:function(arm,size=0xb0) addr:0x0212bc20
__sinit_ov046_0212bcd0 kind:function(arm,size=0x50) addr:0x0212bcd0
__sinit_ov046_0212bd20 kind:function(arm,size=0x50) addr:0x0212bd20
.p__sinit_ov046_0212bae0 kind:data(word) addr:0x0212bd70
.p__sinit_ov046_0212bb68 kind:data(word) addr:0x0212bd74
.p__sinit_ov046_0212bc20 kind:data(word) addr:0x0212bd78
.p__sinit_ov046_0212bcd0 kind:data(word) addr:0x0212bd7c
.p__sinit_ov046_0212bd20 kind:data(word) addr:0x0212bd80
_ZTV19data_ov046_0212bda0 kind:data(any) addr:0x0212bda0
data_ov046_0212bdcc kind:data(any) addr:0x0212bdcc
data_ov046_0212be10 kind:data(any) addr:0x0212be10
_ZTV19data_ov046_0212be70 kind:data(any) addr:0x0212be70
data_ov046_0212bed0 kind:data(any) addr:0x0212bed0
data_ov046_0212bf30 kind:data(any) addr:0x0212bf30
data_ov046_0212bf40 kind:data(any) addr:0x0212bf40
data_ov046_0212bfd8 kind:data(any) addr:0x0212bfd8
_ZTV19data_ov046_0212bfe4 kind:data(any) addr:0x0212bfe4
data_ov046_0212c010 kind:data(any) addr:0x0212c010
data_ov046_0212c030 kind:data(any) addr:0x0212c030
data_ov046_0212c078 kind:data(any) addr:0x0212c078
_ZTV19data_ov046_0212c0c0 kind:data(any) addr:0x0212c0c0
data_ov046_0212c120 kind:data(any) addr:0x0212c120
data_ov046_0212c130 kind:data(any) addr:0x0212c130
data_ov046_0212c198 kind:data(any) addr:0x0212c198
data_ov046_0212c1ac kind:data(any) addr:0x0212c1ac
_ZTV19data_ov046_0212c1b4 kind:data(any) addr:0x0212c1b4
data_ov046_0212c1d8 kind:data(any) addr:0x0212c1d8
data_ov046_0212c1f0 kind:data(any) addr:0x0212c1f0
data_ov046_0212c208 kind:data(any) addr:0x0212c208
data_ov046_0212c220 kind:data(any) addr:0x0212c220
data_ov046_0212c230 kind:data(any) addr:0x0212c230
data_ov046_0212c24c kind:data(any) addr:0x0212c24c ambiguous
_ZTV19data_ov046_0212c280 kind:data(any) addr:0x0212c280
data_ov046_0212c2ec kind:data(any) addr:0x0212c2ec
data_ov046_0212c304 kind:data(any) addr:0x0212c304
data_ov046_0212c320 kind:data(any) addr:0x0212c320
_ZTV19data_ov046_0212c334 kind:data(any) addr:0x0212c334
data_ov046_0212c358 kind:data(any) addr:0x0212c358
_ZTV19data_ov046_0212c3a8 kind:data(any) addr:0x0212c3a8
data_ov046_0212c410 kind:data(any) addr:0x0212c410
data_ov046_0212c428 kind:data(any) addr:0x0212c428
_ZTV19data_ov046_0212c43c kind:data(any) addr:0x0212c43c
data_ov046_0212c460 kind:data(any) addr:0x0212c460
_ZTV19data_ov046_0212c4b0 kind:data(any) addr:0x0212c4b0
data_ov046_0212c520 kind:bss addr:0x0212c520
data_ov046_0212c524 kind:bss addr:0x0212c524
sActorProfileUnkWTTH kind:bss addr:0x0212c530
data_ov046_0212c608 kind:bss addr:0x0212c608
data_ov046_0212c60c kind:bss addr:0x0212c60c
sActorProfileUnkWTH2 kind:bss addr:0x0212c618
data_ov046_0212c648 kind:bss addr:0x0212c648 ambiguous
data_ov046_0212c6f0 kind:bss addr:0x0212c6f0
data_ov046_0212c6f4 kind:bss addr:0x0212c6f4
sActorProfileUnkWTH3 kind:bss addr:0x0212c700
data_ov046_0212c76c kind:bss addr:0x0212c76c ambiguous
data_ov046_0212c7d8 kind:bss addr:0x0212c7d8
data_ov046_0212c7dc kind:bss addr:0x0212c7dc
sActorProfileUnkWBTN kind:bss addr:0x0212c7e8
data_ov046_0212c7ec kind:bss addr:0x0212c7ec
data_ov046_0212c8c0 kind:bss addr:0x0212c8c0
data_ov046_0212c8c4 kind:bss addr:0x0212c8c4
sActorProfileUnkWBN2 kind:bss addr:0x0212c8d0
data_ov046_0212c8d4 kind:bss addr:0x0212c8d4
