_ZN16ActorTypeUnkGRCM11GetInstanceEv kind:function(arm,size=0xc) addr:0x02152c20
_ZN16ActorTypeUnkGRCM6CreateEv kind:function(arm,size=0x24) addr:0x02152c2c
_ZN16ActorTypeUnkGRCMC1Ev kind:function(arm,size=0x28) addr:0x02152c50
_ZN16ActorTypeUnkGRCM19func_ov085_02152c78Ev kind:function(arm,size=0x30) addr:0x02152c78
_ZN16ActorTypeUnkGRCM19func_ov085_02152ca8Ev kind:function(arm,size=0x30) addr:0x02152ca8
_ZN16ActorTypeUnkGRCM19func_ov085_02152cd8Ev kind:function(arm,size=0x10) addr:0x02152cd8
_ZN16ActorTypeUnkGRCM19func_ov085_02152ce8Ev kind:function(arm,size=0x19c) addr:0x02152ce8
_ZN16ActorTypeUnkGRCM19func_ov085_02152e84Ev kind:function(arm,size=0x8) addr:0x02152e84
_ZN16ActorTypeUnkGRCM19func_ov085_02152e8cEv kind:function(arm,size=0x44) addr:0x02152e8c
_ZN16ActorTypeUnkGRCM19func_ov085_02152ed0Ev kind:function(arm,size=0x4c) addr:0x02152ed0
_ZN16ActorTypeUnkGRCM19func_ov085_02152f1cEv kind:function(arm,size=0x4c) addr:0x02152f1c
_ZN16ActorTypeUnkGRCM19func_ov085_02152f68Ev kind:function(arm,size=0x14) addr:0x02152f68
_ZN16ActorTypeUnkGRCM19func_ov085_02152f7cEv kind:function(arm,size=0x1c) addr:0x02152f7c
_ZN16ActorTypeUnkGRCMD1Ev kind:function(arm,size=0x14) addr:0x02152f98
_ZN16ActorTypeUnkSRST11GetInstanceEv kind:function(arm,size=0xc) addr:0x02152fac
_ZN16ActorTypeUnkSRST6CreateEv kind:function(arm,size=0x24) addr:0x02152fb8
_ZN16ActorTypeUnkSRSTC1Ev kind:function(arm,size=0x60) addr:0x02152fdc
_ZN16ActorTypeUnkSRST19func_ov085_0215303cEv kind:function(arm,size=0x1a8) addr:0x0215303c
_ZN16ActorTypeUnkSRST19func_ov085_021531e4Ev kind:function(arm,size=0x14) addr:0x021531e4
_ZN16ActorTypeUnkSRST19func_ov085_021531f8Ev kind:function(arm,size=0x14) addr:0x021531f8
_ZN16ActorTypeUnkSRST19func_ov085_0215320cEv kind:function(arm,size=0x8) addr:0x0215320c
_ZN16ActorTypeUnkSRST19func_ov085_02153214Ev kind:function(arm,size=0xec) addr:0x02153214
_ZN16ActorTypeUnkSRST19func_ov085_02153300Ev kind:function(arm,size=0x74) addr:0x02153300
_ZN16ActorTypeUnkSRST19func_ov085_02153374Ev kind:function(arm,size=0x110) addr:0x02153374
_ZN16ActorTypeUnkSRST19func_ov085_02153484Ev kind:function(arm,size=0x64) addr:0x02153484
_ZN16ActorTypeUnkSRST19func_ov085_021534e8Ev kind:function(arm,size=0x20) addr:0x021534e8
_ZN16ActorTypeUnkSRST19func_ov085_02153508Ev kind:function(arm,size=0x18) addr:0x02153508
_ZN16ActorTypeUnkSRST19func_ov085_02153520Ev kind:function(arm,size=0x148) addr:0x02153520
_ZN16ActorTypeUnkSRST19func_ov085_02153668Ev kind:function(arm,size=0x118) addr:0x02153668
_ZN16ActorTypeUnkSRST19func_ov085_02153780Ev kind:function(arm,size=0xcc) addr:0x02153780
_ZN16ActorTypeUnkSRST19func_ov085_0215384cEv kind:function(arm,size=0x630) addr:0x0215384c
_ZN16ActorTypeUnkSRST19func_ov085_02153e7cEv kind:function(arm,size=0x3ec) addr:0x02153e7c
_ZN16ActorTypeUnkSRST19func_ov085_02154268Ev kind:function(arm,size=0x3b4) addr:0x02154268
_ZN16ActorTypeUnkSRST19func_ov085_0215461cEv kind:function(arm,size=0x1ac) addr:0x0215461c
_ZN16ActorTypeUnkSRST19func_ov085_021547c8Ev kind:function(arm,size=0x210) addr:0x021547c8
_ZN16ActorTypeUnkSRST19func_ov085_021549d8Ev kind:function(arm,size=0xe4) addr:0x021549d8
_ZN16ActorTypeUnkSRST19func_ov085_02154abcEv kind:function(arm,size=0x58) addr:0x02154abc
_ZN16ActorTypeUnkSRST19func_ov085_02154b14Ev kind:function(arm,size=0xb0) addr:0x02154b14
_ZN16ActorTypeUnkSRST19func_ov085_02154bc4Ev kind:function(arm,size=0x88) addr:0x02154bc4
_ZN16ActorTypeUnkSRST19func_ov085_02154c4cEv kind:function(arm,size=0xf8) addr:0x02154c4c
_ZN16ActorTypeUnkSRST19func_ov085_02154d44Ev kind:function(arm,size=0x34) addr:0x02154d44
_ZN16ActorTypeUnkSRST19func_ov085_02154d78Ev kind:function(arm,size=0x1c) addr:0x02154d78
_ZN16ActorTypeUnkSRST19func_ov085_02154d94Ev kind:function(arm,size=0xd0) addr:0x02154d94
_ZN16ActorTypeUnkSRST19func_ov085_02154e64Ev kind:function(arm,size=0x74) addr:0x02154e64
_ZN16ActorTypeUnkSRST19func_ov085_02154ed8Ev kind:function(arm,size=0x9c) addr:0x02154ed8
_ZN16ActorTypeUnkSRST19func_ov085_02154f74Ev kind:function(arm,size=0x18) addr:0x02154f74
_ZN16ActorTypeUnkSRST19func_ov085_02154f8cEv kind:function(arm,size=0x70) addr:0x02154f8c
_ZN16ActorTypeUnkSRST19func_ov085_02154ffcEv kind:function(arm,size=0x24) addr:0x02154ffc
_ZN16ActorTypeUnkSRST19func_ov085_02155020Ev kind:function(arm,size=0x70) addr:0x02155020
_ZN16ActorTypeUnkSRST19func_ov085_02155090Ev kind:function(arm,size=0x3c) addr:0x02155090
_ZN16ActorTypeUnkSRST19func_ov085_021550ccEv kind:function(arm,size=0x3c) addr:0x021550cc
_ZN16ActorTypeUnkSRST19func_ov085_02155108Ev kind:function(arm,size=0x24) addr:0x02155108
_ZN16ActorTypeUnkSRST19func_ov085_0215512cEv kind:function(arm,size=0x1c) addr:0x0215512c
_ZN16ActorTypeUnkSRST19func_ov085_02155148Ev kind:function(arm,size=0x1c) addr:0x02155148
_ZN16ActorTypeUnkSRST19func_ov085_02155164Ev kind:function(arm,size=0x40) addr:0x02155164
_ZN16ActorTypeUnkSRST19func_ov085_021551a4Ev kind:function(arm,size=0x48) addr:0x021551a4
_ZN16ActorTypeUnkSRSTD1Ev kind:function(arm,size=0x14) addr:0x021551ec
_ZN20MapObjectTypeUnkCTPT11GetInstanceEv kind:function(arm,size=0xc) addr:0x02155200
_ZN20MapObjectTypeUnkCTPT6CreateEv kind:function(arm,size=0x24) addr:0x0215520c
_ZN20MapObjectTypeUnkCTPTC1Ev kind:function(arm,size=0x7c) addr:0x02155230
_ZN20MapObjectTypeUnkCTPT19func_ov085_021552acEv kind:function(arm,size=0x128) addr:0x021552ac
_ZN20MapObjectTypeUnkCTPT19func_ov085_021553d4Ev kind:function(arm,size=0x14) addr:0x021553d4
_ZN20MapObjectTypeUnkCTPT19func_ov085_021553e8Ev kind:function(arm,size=0x14) addr:0x021553e8
_ZN20MapObjectTypeUnkCTPT19func_ov085_021553fcEv kind:function(arm,size=0x254) addr:0x021553fc
_ZN20MapObjectTypeUnkCTPT19func_ov085_02155650Ev kind:function(arm,size=0x2c8) addr:0x02155650
_ZN20MapObjectTypeUnkCTPT19func_ov085_02155918Ev kind:function(arm,size=0x140) addr:0x02155918
_ZN20MapObjectTypeUnkCTPT19func_ov085_02155a58Ev kind:function(arm,size=0x16c) addr:0x02155a58
_ZN20MapObjectTypeUnkCTPT19func_ov085_02155bc4Ev kind:function(arm,size=0x90) addr:0x02155bc4
_ZN20MapObjectTypeUnkCTPT19func_ov085_02155c54Ev kind:function(arm,size=0x44) addr:0x02155c54
_ZN20MapObjectTypeUnkCTPT19func_ov085_02155c98Ev kind:function(arm,size=0x28) addr:0x02155c98
_ZN20MapObjectTypeUnkCTPT19func_ov085_02155cc0Ev kind:function(arm,size=0x70) addr:0x02155cc0
_ZN20MapObjectTypeUnkCTPT19func_ov085_02155d30Ev kind:function(arm,size=0x70) addr:0x02155d30
_ZN20MapObjectTypeUnkCTPT19func_ov085_02155da0Ev kind:function(arm,size=0x1c) addr:0x02155da0
_ZN20MapObjectTypeUnkCTPT19func_ov085_02155dbcEv kind:function(arm,size=0x1c) addr:0x02155dbc
_ZN20MapObjectTypeUnkCTPT19func_ov085_02155dd8Ev kind:function(arm,size=0x38) addr:0x02155dd8
_ZN20MapObjectTypeUnkCTPT19func_ov085_02155e10Ev kind:function(arm,size=0x40) addr:0x02155e10
_ZN20MapObjectTypeUnkCTPTD1Ev kind:function(arm,size=0x14) addr:0x02155e50
data_ov085_02155e64 kind:data(any) addr:0x02155e64
data_ov085_02155e6c kind:data(any) addr:0x02155e6c
data_ov085_02155e7c kind:data(any) addr:0x02155e7c
data_ov085_02155e8c kind:data(any) addr:0x02155e8c
data_ov085_02155e9c kind:data(any) addr:0x02155e9c
data_ov085_02155ea8 kind:data(any) addr:0x02155ea8
data_ov085_02155eb4 kind:data(any) addr:0x02155eb4
data_ov085_02155ec0 kind:data(any) addr:0x02155ec0
data_ov085_02155ecc kind:data(any) addr:0x02155ecc
data_ov085_02155ed8 kind:data(any) addr:0x02155ed8
data_ov085_02155ee8 kind:data(any) addr:0x02155ee8
data_ov085_02155ef8 kind:data(any) addr:0x02155ef8
__sinit_ov085_02155f08 kind:function(arm,size=0x50) addr:0x02155f08
__sinit_ov085_02155f58 kind:function(arm,size=0x50) addr:0x02155f58
__sinit_ov085_02155fa8 kind:function(arm,size=0x50) addr:0x02155fa8
.p__sinit_ov085_02155f08 kind:data(word) addr:0x02155ff8
.p__sinit_ov085_02155f58 kind:data(word) addr:0x02155ffc
.p__sinit_ov085_02155fa8 kind:data(word) addr:0x02156000
data_ov085_02156028 kind:data(any) addr:0x02156028
data_ov085_0215602c kind:data(any) addr:0x0215602c ambiguous
data_ov085_0215604c kind:data(any) addr:0x0215604c
data_ov085_021560ac kind:data(any) addr:0x021560ac
data_ov085_021560c8 kind:data(any) addr:0x021560c8
data_ov085_021560e4 kind:data(any) addr:0x021560e4
data_ov085_02156108 kind:data(any) addr:0x02156108
data_ov085_02156168 kind:data(any) addr:0x02156168
data_ov085_0215617c kind:data(any) addr:0x0215617c
data_ov085_02156190 kind:data(any) addr:0x02156190
data_ov085_021561ac kind:data(any) addr:0x021561ac
data_ov085_021561c4 kind:data(any) addr:0x021561c4 ambiguous
data_ov085_021561c8 kind:data(any) addr:0x021561c8
data_ov085_021561f0 kind:data(any) addr:0x021561f0
data_ov085_02156218 kind:data(any) addr:0x02156218
data_ov085_02156260 kind:bss addr:0x02156260
data_ov085_02156264 kind:bss addr:0x02156264
data_ov085_02156270 kind:bss addr:0x02156270
data_ov085_0215628c kind:bss addr:0x0215628c ambiguous
data_ov085_021562ac kind:bss addr:0x021562ac
data_ov085_021562b0 kind:bss addr:0x021562b0
data_ov085_021562bc kind:bss addr:0x021562bc
data_ov085_021562c0 kind:bss addr:0x021562c0 ambiguous
data_ov085_02156394 kind:bss addr:0x02156394
data_ov085_02156398 kind:bss addr:0x02156398
data_ov085_021563a4 kind:bss addr:0x021563a4
data_ov085_021563c4 kind:bss addr:0x021563c4
