_ZN20MapObjectTypeUnkTMDE11GetInstanceEv kind:function(arm,size=0xc) addr:0x02143d60
_ZN20MapObjectTypeUnkTMDE6CreateEv kind:function(arm,size=0x24) addr:0x02143d6c
_ZN20MapObjectTypeUnkTMDEC1Ev kind:function(arm,size=0x38) addr:0x02143d90
_ZN16MapObjectUnkTMDEC1Ev kind:function(arm,size=0xc4) addr:0x02143dc8
_ZN16MapObjectUnkTMDE19func_ov029_02143e8cEv kind:function(arm,size=0x14) addr:0x02143e8c
_ZN16MapObjectUnkTMDE19func_ov029_02143ea0Ev kind:function(arm,size=0x1ec) addr:0x02143ea0
_ZN16MapObjectUnkTMDE19func_ov029_0214408cEv kind:function(arm,size=0xe8) addr:0x0214408c
_ZN16MapObjectUnkTMDE19func_ov029_02144174Ev kind:function(arm,size=0x8) addr:0x02144174
_ZN16MapObjectUnkTMDE19func_ov029_0214417cEv kind:function(arm,size=0x8) addr:0x0214417c
_ZN16MapObjectUnkTMDE19func_ov029_02144184Ev kind:function(arm,size=0x4) addr:0x02144184
_ZN16MapObjectUnkTMDE19func_ov029_02144188Ev kind:function(arm,size=0x4) addr:0x02144188
_ZN16MapObjectUnkTMDE19func_ov029_0214418cEv kind:function(arm,size=0x74) addr:0x0214418c
_ZN16MapObjectUnkTMDE19func_ov029_02144200Ev kind:function(arm,size=0x20) addr:0x02144200
_ZN16MapObjectUnkTMDE19func_ov029_02144220Ev kind:function(arm,size=0x20) addr:0x02144220
_ZN16MapObjectUnkTMDE19func_ov029_02144240Ev kind:function(arm,size=0x20) addr:0x02144240
_ZN16MapObjectUnkTMDED0Ev kind:function(arm,size=0x1c) addr:0x02144260
_ZN16MapObjectUnkTMDED1Ev kind:function(arm,size=0x28) addr:0x0214427c
_ZN16MapObjectUnkTMDE19func_ov029_021442a4Ev kind:function(arm,size=0x30) addr:0x021442a4
_ZN16MapObjectUnkTMDE19func_ov029_021442d4Ev kind:function(arm,size=0x28) addr:0x021442d4
_ZN16MapObjectUnkTMDED2Ev kind:function(arm,size=0x20) addr:0x021442fc
_ZN20MapObjectTypeUnkTMDED1Ev kind:function(arm,size=0x14) addr:0x0214431c
_ZN20MapObjectTypeUnkTMWT11GetInstanceEv kind:function(arm,size=0xc) addr:0x02144330
_ZN20MapObjectTypeUnkTMWT6CreateEv kind:function(arm,size=0x24) addr:0x0214433c
_ZN20MapObjectTypeUnkTMWTC1Ev kind:function(arm,size=0x40) addr:0x02144360
_ZN16MapObjectUnkTMWTC1Ev kind:function(arm,size=0xa0) addr:0x021443a0
_ZN16MapObjectUnkTMWT19func_ov029_02144440Ev kind:function(arm,size=0xe8) addr:0x02144440
_ZN16MapObjectUnkTMWT19func_ov029_02144528Ev kind:function(arm,size=0x20) addr:0x02144528
_ZN16MapObjectUnkTMWT19func_ov029_02144548Ev kind:function(arm,size=0x20) addr:0x02144548
_ZN16MapObjectUnkTMWT19func_ov029_02144568Ev kind:function(arm,size=0x20) addr:0x02144568
_ZN16MapObjectUnkTMWTD1Ev kind:function(arm,size=0x20) addr:0x02144588
_ZN16MapObjectUnkTMWTD0Ev kind:function(arm,size=0x28) addr:0x021445a8
_ZN20MapObjectTypeUnkTMWTD1Ev kind:function(arm,size=0x14) addr:0x021445d0
_ZN20MapObjectTypeUnkTRWA11GetInstanceEv kind:function(arm,size=0xc) addr:0x021445e4
_ZN20MapObjectTypeUnkTRWA6CreateEv kind:function(arm,size=0x24) addr:0x021445f0
_ZN20MapObjectTypeUnkTRWAC1Ev kind:function(arm,size=0x5c) addr:0x02144614
_ZN16MapObjectUnkTRWAC1Ev kind:function(arm,size=0xa0) addr:0x02144670
_ZN16MapObjectUnkTRWA19func_ov029_02144710Ev kind:function(arm,size=0xec) addr:0x02144710
_ZN16MapObjectUnkTRWA19func_ov029_021447fcEv kind:function(arm,size=0x20) addr:0x021447fc
_ZN16MapObjectUnkTRWA19func_ov029_0214481cEv kind:function(arm,size=0x20) addr:0x0214481c
_ZN16MapObjectUnkTRWA19func_ov029_0214483cEv kind:function(arm,size=0x20) addr:0x0214483c
_ZN16MapObjectUnkTRWA19func_ov029_0214485cEv kind:function(arm,size=0x8) addr:0x0214485c
_ZN16MapObjectUnkTRWAD1Ev kind:function(arm,size=0x20) addr:0x02144864
_ZN16MapObjectUnkTRWAD0Ev kind:function(arm,size=0x28) addr:0x02144884
_ZN20MapObjectTypeUnkTRWAD1Ev kind:function(arm,size=0x14) addr:0x021448ac
_ZN20MapObjectTypeUnkTRRW11GetInstanceEv kind:function(arm,size=0xc) addr:0x021448c0
_ZN20MapObjectTypeUnkTRRW6CreateEv kind:function(arm,size=0x24) addr:0x021448cc
_ZN20MapObjectTypeUnkTRRWC1Ev kind:function(arm,size=0x40) addr:0x021448f0
_ZN16MapObjectUnkTRRWC1Ev kind:function(arm,size=0xa0) addr:0x02144930
_ZN16MapObjectUnkTRRW19func_ov029_021449d0Ev kind:function(arm,size=0xec) addr:0x021449d0
_ZN16MapObjectUnkTRRW19func_ov029_02144abcEv kind:function(arm,size=0x20) addr:0x02144abc
_ZN16MapObjectUnkTRRW19func_ov029_02144adcEv kind:function(arm,size=0x20) addr:0x02144adc
_ZN16MapObjectUnkTRRW19func_ov029_02144afcEv kind:function(arm,size=0x20) addr:0x02144afc
_ZN16MapObjectUnkTRRW19func_ov029_02144b1cEv kind:function(arm,size=0x8) addr:0x02144b1c
_ZN16MapObjectUnkTRRWD1Ev kind:function(arm,size=0x20) addr:0x02144b24
_ZN16MapObjectUnkTRRWD0Ev kind:function(arm,size=0x28) addr:0x02144b44
_ZN20MapObjectTypeUnkTRRWD1Ev kind:function(arm,size=0x14) addr:0x02144b6c
_ZN20MapObjectTypeUnkTRSA11GetInstanceEv kind:function(arm,size=0xc) addr:0x02144b80
_ZN20MapObjectTypeUnkTRSA6CreateEv kind:function(arm,size=0x24) addr:0x02144b8c
_ZN20MapObjectTypeUnkTRSAC1Ev kind:function(arm,size=0x5c) addr:0x02144bb0
_ZN16MapObjectUnkTRSAC1Ev kind:function(arm,size=0x90) addr:0x02144c0c
_ZN16MapObjectUnkTRSA19func_ov029_02144c9cEv kind:function(arm,size=0x23c) addr:0x02144c9c
_ZN16MapObjectUnkTRSA19func_ov029_02144ed8Ev kind:function(arm,size=0xe8) addr:0x02144ed8
_ZN16MapObjectUnkTRSA19func_ov029_02144fc0Ev kind:function(arm,size=0x8) addr:0x02144fc0
_ZN16MapObjectUnkTRSA19func_ov029_02144fc8Ev kind:function(arm,size=0x8) addr:0x02144fc8
_ZN16MapObjectUnkTRSA19func_ov029_02144fd0Ev kind:function(arm,size=0x4) addr:0x02144fd0
_ZN16MapObjectUnkTRSA19func_ov029_02144fd4Ev kind:function(arm,size=0x174) addr:0x02144fd4
_ZN16MapObjectUnkTRSA19func_ov029_02145148Ev kind:function(arm,size=0x198) addr:0x02145148
_ZN16MapObjectUnkTRSA19func_ov029_021452e0Ev kind:function(arm,size=0x4c) addr:0x021452e0
_ZN16MapObjectUnkTRSA19func_ov029_0214532cEv kind:function(arm,size=0x8c) addr:0x0214532c
_ZN16MapObjectUnkTRSA19func_ov029_021453b8Ev kind:function(arm,size=0x58) addr:0x021453b8
_ZN16MapObjectUnkTRSA19func_ov029_02145410Ev kind:function(arm,size=0x48) addr:0x02145410
_ZN16MapObjectUnkTRSA19func_ov029_02145458Ev kind:function(arm,size=0x20) addr:0x02145458
_ZN16MapObjectUnkTRSA19func_ov029_02145478Ev kind:function(arm,size=0x20) addr:0x02145478
_ZN16MapObjectUnkTRSA19func_ov029_02145498Ev kind:function(arm,size=0x20) addr:0x02145498
_ZN16MapObjectUnkTRSA19func_ov029_021454b8Ev kind:function(arm,size=0x8) addr:0x021454b8
_ZN16MapObjectUnkTRSAD1Ev kind:function(arm,size=0x40) addr:0x021454c0
_ZN16MapObjectUnkTRSAD0Ev kind:function(arm,size=0x48) addr:0x02145500
_ZN16MapObjectUnkTRSA19func_ov029_02145548Ev kind:function(arm,size=0x40) addr:0x02145548
_ZN16MapObjectUnkTRSAD2Ev kind:function(arm,size=0x38) addr:0x02145588
_ZN20MapObjectTypeUnkTRSAD1Ev kind:function(arm,size=0x14) addr:0x021455c0
_ZN20MapObjectTypeUnkTRRD11GetInstanceEv kind:function(arm,size=0xc) addr:0x021455d4
_ZN20MapObjectTypeUnkTRRD6CreateEv kind:function(arm,size=0x24) addr:0x021455e0
_ZN20MapObjectTypeUnkTRRDC1Ev kind:function(arm,size=0x38) addr:0x02145604
_ZN16MapObjectUnkTRRDC1Ev kind:function(arm,size=0xa0) addr:0x0214563c
_ZN16MapObjectUnkTRRD19func_ov029_021456dcEv kind:function(arm,size=0xec) addr:0x021456dc
_ZN16MapObjectUnkTRRD19func_ov029_021457c8Ev kind:function(arm,size=0x20) addr:0x021457c8
_ZN16MapObjectUnkTRRD19func_ov029_021457e8Ev kind:function(arm,size=0x20) addr:0x021457e8
_ZN16MapObjectUnkTRRD19func_ov029_02145808Ev kind:function(arm,size=0x20) addr:0x02145808
_ZN16MapObjectUnkTRRD19func_ov029_02145828Ev kind:function(arm,size=0x8) addr:0x02145828
_ZN16MapObjectUnkTRRDD1Ev kind:function(arm,size=0x20) addr:0x02145830
_ZN16MapObjectUnkTRRDD0Ev kind:function(arm,size=0x28) addr:0x02145850
_ZN20MapObjectTypeUnkTRRDD1Ev kind:function(arm,size=0x14) addr:0x02145878
_ZN20MapObjectTypeUnkTRPI11GetInstanceEv kind:function(arm,size=0xc) addr:0x0214588c
_ZN20MapObjectTypeUnkTRPI6CreateEv kind:function(arm,size=0x24) addr:0x02145898
_ZN20MapObjectTypeUnkTRPIC1Ev kind:function(arm,size=0x40) addr:0x021458bc
_ZN16MapObjectUnkTRPIC1Ev kind:function(arm,size=0xa0) addr:0x021458fc
_ZN16MapObjectUnkTRPI19func_ov029_0214599cEv kind:function(arm,size=0xec) addr:0x0214599c
_ZN16MapObjectUnkTRPI19func_ov029_02145a88Ev kind:function(arm,size=0x20) addr:0x02145a88
_ZN16MapObjectUnkTRPI19func_ov029_02145aa8Ev kind:function(arm,size=0x20) addr:0x02145aa8
_ZN16MapObjectUnkTRPI19func_ov029_02145ac8Ev kind:function(arm,size=0x20) addr:0x02145ac8
_ZN16MapObjectUnkTRPI19func_ov029_02145ae8Ev kind:function(arm,size=0x8) addr:0x02145ae8
_ZN16MapObjectUnkTRPID1Ev kind:function(arm,size=0x20) addr:0x02145af0
_ZN16MapObjectUnkTRPID0Ev kind:function(arm,size=0x28) addr:0x02145b10
_ZN20MapObjectTypeUnkTRPID1Ev kind:function(arm,size=0x14) addr:0x02145b38
_ZN20MapObjectTypeUnkSBDE11GetInstanceEv kind:function(arm,size=0xc) addr:0x02145b4c
_ZN20MapObjectTypeUnkSBDE6CreateEv kind:function(arm,size=0x24) addr:0x02145b58
_ZN20MapObjectTypeUnkSBDEC1Ev kind:function(arm,size=0x2c) addr:0x02145b7c
_ZN16MapObjectUnkSBDEC1Ev kind:function(arm,size=0xac) addr:0x02145ba8
_ZN16MapObjectUnkSBDE19func_ov029_02145c54Ev kind:function(arm,size=0xc4) addr:0x02145c54
_ZN16MapObjectUnkSBDE19func_ov029_02145d18Ev kind:function(arm,size=0x464) addr:0x02145d18
_ZN16MapObjectUnkSBDE19func_ov029_0214617cEv kind:function(arm,size=0x14) addr:0x0214617c
_ZN16MapObjectUnkSBDE19func_ov029_02146190Ev kind:function(arm,size=0x13c) addr:0x02146190
_ZN16MapObjectUnkSBDE19func_ov029_021462ccEv kind:function(arm,size=0x98) addr:0x021462cc
_ZN16MapObjectUnkSBDE19func_ov029_02146364Ev kind:function(arm,size=0x8) addr:0x02146364
_ZN16MapObjectUnkSBDED1Ev kind:function(arm,size=0x38) addr:0x0214636c
_ZN16MapObjectUnkSBDED0Ev kind:function(arm,size=0x40) addr:0x021463a4
_ZN20MapObjectTypeUnkSBDED1Ev kind:function(arm,size=0x14) addr:0x021463e4
_ZN20MapObjectTypeUnkSTDE11GetInstanceEv kind:function(arm,size=0xc) addr:0x021463f8
_ZN20MapObjectTypeUnkSTDE6CreateEv kind:function(arm,size=0x24) addr:0x02146404
_ZN20MapObjectTypeUnkSTDEC1Ev kind:function(arm,size=0x48) addr:0x02146428
_ZN16MapObjectUnkSTDEC1Ev kind:function(arm,size=0xac) addr:0x02146470
_ZN16MapObjectUnkSTDE19func_ov029_0214651cEv kind:function(arm,size=0x6c) addr:0x0214651c
_ZN16MapObjectUnkSTDE19func_ov029_02146588Ev kind:function(arm,size=0x28) addr:0x02146588
_ZN16MapObjectUnkSTDE19func_ov029_021465b0Ev kind:function(arm,size=0x1c) addr:0x021465b0
_ZN16MapObjectUnkSTDE19func_ov029_021465ccEv kind:function(arm,size=0x44) addr:0x021465cc
_ZN16MapObjectUnkSTDE19func_ov029_02146610Ev kind:function(arm,size=0x30) addr:0x02146610
_ZN16MapObjectUnkSTDED1Ev kind:function(arm,size=0x28) addr:0x02146640
_ZN16MapObjectUnkSTDED0Ev kind:function(arm,size=0x30) addr:0x02146668
_ZN20MapObjectTypeUnkSTDED1Ev kind:function(arm,size=0x14) addr:0x02146698
_ZN20MapObjectTypeUnkTCBT11GetInstanceEv kind:function(arm,size=0xc) addr:0x021466ac
_ZN20MapObjectTypeUnkTCBT6CreateEv kind:function(arm,size=0x24) addr:0x021466b8
_ZN20MapObjectTypeUnkTCBTC1Ev kind:function(arm,size=0xb8) addr:0x021466dc
_ZN16MapObjectUnkTCBT19func_ov029_02146794Ev kind:function(arm,size=0x3c) addr:0x02146794
_ZN16MapObjectUnkTCBT19func_ov029_021467d0Ev kind:function(arm,size=0x38) addr:0x021467d0
_ZN16MapObjectUnkTCBT19func_ov029_02146808Ev kind:function(arm,size=0x3c) addr:0x02146808
_ZN16MapObjectUnkTCBT19func_ov029_02146844Ev kind:function(arm,size=0x78) addr:0x02146844
_ZN16MapObjectUnkTCBTC1Ev kind:function(arm,size=0x108) addr:0x021468bc
_ZN16MapObjectUnkTCBT19func_ov029_021469c4Ev kind:function(arm,size=0x14) addr:0x021469c4
_ZN16MapObjectUnkTCBT19func_ov029_021469d8Ev kind:function(arm,size=0x140) addr:0x021469d8
_ZN16MapObjectUnkTCBT19func_ov029_02146b18Ev kind:function(arm,size=0x70) addr:0x02146b18
_ZN16MapObjectUnkTCBT19func_ov029_02146b88Ev kind:function(arm,size=0x4) addr:0x02146b88
_ZN16MapObjectUnkTCBT19func_ov029_02146b8cEv kind:function(arm,size=0x174) addr:0x02146b8c
_ZN16MapObjectUnkTCBT19func_ov029_02146d00Ev kind:function(arm,size=0x9c) addr:0x02146d00
_ZN16MapObjectUnkTCBT19func_ov029_02146d9cEv kind:function(arm,size=0x9c) addr:0x02146d9c
_ZN16MapObjectUnkTCBT19func_ov029_02146e38Ev kind:function(arm,size=0x70) addr:0x02146e38
_ZN16MapObjectUnkTCBT19func_ov029_02146ea8Ev kind:function(arm,size=0x474) addr:0x02146ea8
_ZN16MapObjectUnkTCBT19func_ov029_0214731cEv kind:function(arm,size=0x64) addr:0x0214731c
_ZN16MapObjectUnkTCBT19func_ov029_02147380Ev kind:function(arm,size=0xfc) addr:0x02147380
_ZN16MapObjectUnkTCBT19func_ov029_0214747cEv kind:function(arm,size=0x80) addr:0x0214747c
_ZN16MapObjectUnkTCBT19func_ov029_021474fcEv kind:function(arm,size=0x84) addr:0x021474fc
_ZN16MapObjectUnkTCBT19func_ov029_02147580Ev kind:function(arm,size=0x108) addr:0x02147580
_ZN16MapObjectUnkTCBTD0Ev kind:function(arm,size=0x1c) addr:0x02147688
_ZN16MapObjectUnkTCBTD1Ev kind:function(arm,size=0x28) addr:0x021476a4
_ZN16MapObjectUnkTCBT19func_ov029_021476ccEv kind:function(arm,size=0x30) addr:0x021476cc
_ZN20MapObjectTypeUnkTCBTD1Ev kind:function(arm,size=0x14) addr:0x021476fc
_ZN20MapObjectTypeUnkWHSW11GetInstanceEv kind:function(arm,size=0xc) addr:0x02147710
_ZN20MapObjectTypeUnkWHSW6CreateEv kind:function(arm,size=0x24) addr:0x0214771c
_ZN20MapObjectTypeUnkWHSWC1Ev kind:function(arm,size=0xa8) addr:0x02147740
_ZN16MapObjectUnkWHSWC1Ev kind:function(arm,size=0xc0) addr:0x021477e8
_ZN16MapObjectUnkWHSW19func_ov029_021478a8Ev kind:function(arm,size=0xb4) addr:0x021478a8
_ZN16MapObjectUnkWHSW19func_ov029_0214795cEv kind:function(arm,size=0x348) addr:0x0214795c
_ZN16MapObjectUnkWHSW19func_ov029_02147ca4Ev kind:function(arm,size=0x14) addr:0x02147ca4
_ZN16MapObjectUnkWHSW19func_ov029_02147cb8Ev kind:function(arm,size=0xfc) addr:0x02147cb8
_ZN16MapObjectUnkWHSW19func_ov029_02147db4Ev kind:function(arm,size=0x70) addr:0x02147db4
_ZN16MapObjectUnkWHSW19func_ov029_02147e24Ev kind:function(arm,size=0x188) addr:0x02147e24
_ZN16MapObjectUnkWHSWD1Ev kind:function(arm,size=0x28) addr:0x02147fac
_ZN16MapObjectUnkWHSWD0Ev kind:function(arm,size=0x30) addr:0x02147fd4
_ZN20MapObjectTypeUnkWHSWD1Ev kind:function(arm,size=0x14) addr:0x02148004
_ZN20MapObjectTypeUnkTRH111GetInstanceEv kind:function(arm,size=0xc) addr:0x02148018
_ZN20MapObjectTypeUnkTRH16CreateEv kind:function(arm,size=0x24) addr:0x02148024
_ZN20MapObjectTypeUnkTRH1C1Ev kind:function(arm,size=0x40) addr:0x02148048
_ZN16MapObjectUnkTRH1C1Ev kind:function(arm,size=0x3c) addr:0x02148088
_ZN16MapObjectUnkTRH119func_ov029_021480c4Ev kind:function(arm,size=0x150) addr:0x021480c4
_ZN16MapObjectUnkTRH119func_ov029_02148214Ev kind:function(arm,size=0xc) addr:0x02148214
_ZN16MapObjectUnkTRH119func_ov029_02148220Ev kind:function(arm,size=0xc) addr:0x02148220
_ZN16MapObjectUnkTRH119func_ov029_0214822cEv kind:function(arm,size=0x40) addr:0x0214822c
_ZN16MapObjectUnkTRH119func_ov029_0214826cEv kind:function(arm,size=0x20) addr:0x0214826c
_ZN16MapObjectUnkTRH119func_ov029_0214828cEv kind:function(arm,size=0x20) addr:0x0214828c
_ZN16MapObjectUnkTRH119func_ov029_021482acEv kind:function(arm,size=0x8) addr:0x021482ac
_ZN16MapObjectUnkTRH1D1Ev kind:function(arm,size=0x20) addr:0x021482b4
_ZN16MapObjectUnkTRH1D0Ev kind:function(arm,size=0x28) addr:0x021482d4
_ZN20MapObjectTypeUnkTRH1D1Ev kind:function(arm,size=0x14) addr:0x021482fc
_ZN20MapObjectTypeUnkTBSS11GetInstanceEv kind:function(arm,size=0xc) addr:0x02148310
_ZN20MapObjectTypeUnkTBSS6CreateEv kind:function(arm,size=0x24) addr:0x0214831c
_ZN20MapObjectTypeUnkTBSSC1Ev kind:function(arm,size=0xac) addr:0x02148340
_ZN16MapObjectUnkTBSSC1Ev kind:function(arm,size=0x2c) addr:0x021483ec
_ZN16MapObjectUnkTBSS19func_ov029_02148418Ev kind:function(arm,size=0x58) addr:0x02148418
_ZN16MapObjectUnkTBSS19func_ov029_02148470Ev kind:function(arm,size=0xc) addr:0x02148470
_ZN16MapObjectUnkTBSS19func_ov029_0214847cEv kind:function(arm,size=0x50) addr:0x0214847c
_ZN16MapObjectUnkTBSS19func_ov029_021484ccEv kind:function(arm,size=0xc) addr:0x021484cc
_ZN16MapObjectUnkTBSS19func_ov029_021484d8Ev kind:function(arm,size=0x70) addr:0x021484d8
_ZN16MapObjectUnkTBSSD1Ev kind:function(arm,size=0x20) addr:0x02148548
_ZN16MapObjectUnkTBSSD0Ev kind:function(arm,size=0x28) addr:0x02148568
_ZN20MapObjectTypeUnkTBSSD1Ev kind:function(arm,size=0x14) addr:0x02148590
_ZN20MapObjectTypeUnkTRBL11GetInstanceEv kind:function(arm,size=0xc) addr:0x021485a4
_ZN20MapObjectTypeUnkTRBL6CreateEv kind:function(arm,size=0x24) addr:0x021485b0
_ZN20MapObjectTypeUnkTRBLC1Ev kind:function(arm,size=0xb0) addr:0x021485d4
_ZN16MapObjectUnkTRBL19func_ov029_02148684Ev kind:function(arm,size=0xb0) addr:0x02148684
_ZN16MapObjectUnkTRBLC1Ev kind:function(arm,size=0xb0) addr:0x02148734
_ZN16MapObjectUnkTRBL19func_ov029_021487e4Ev kind:function(arm,size=0x108) addr:0x021487e4
_ZN16MapObjectUnkTRBL19func_ov029_021488ecEv kind:function(arm,size=0x16c) addr:0x021488ec
_ZN16MapObjectUnkTRBL19func_ov029_02148a58Ev kind:function(arm,size=0x38) addr:0x02148a58
_ZN16MapObjectUnkTRBL19func_ov029_02148a90Ev kind:function(arm,size=0x70) addr:0x02148a90
_ZN16MapObjectUnkTRBL19func_ov029_02148b00Ev kind:function(arm,size=0xc0) addr:0x02148b00
_ZN16MapObjectUnkTRBL19func_ov029_02148bc0Ev kind:function(arm,size=0x80) addr:0x02148bc0
_ZN16MapObjectUnkTRBLD1Ev kind:function(arm,size=0x20) addr:0x02148c40
_ZN16MapObjectUnkTRBLD0Ev kind:function(arm,size=0x28) addr:0x02148c60
_ZN20MapObjectTypeUnkTRBLD1Ev kind:function(arm,size=0x14) addr:0x02148c88
_ZN20MapObjectTypeUnkRBBL11GetInstanceEv kind:function(arm,size=0xc) addr:0x02148c9c
_ZN20MapObjectTypeUnkRBBL6CreateEv kind:function(arm,size=0x24) addr:0x02148ca8
_ZN20MapObjectTypeUnkRBBLC1Ev kind:function(arm,size=0xa8) addr:0x02148ccc
_ZN16MapObjectUnkRBBLC1Ev kind:function(arm,size=0x20) addr:0x02148d74
_ZN16MapObjectUnkRBBL19func_ov029_02148d94Ev kind:function(arm,size=0x14) addr:0x02148d94
_ZN16MapObjectUnkRBBL19func_ov029_02148da8Ev kind:function(arm,size=0xa8) addr:0x02148da8
_ZN16MapObjectUnkRBBLD1Ev kind:function(arm,size=0x20) addr:0x02148e50
_ZN16MapObjectUnkRBBLD0Ev kind:function(arm,size=0x28) addr:0x02148e70
_ZN20MapObjectTypeUnkRBBLD1Ev kind:function(arm,size=0x14) addr:0x02148e98
_ZN19ActorProfileUnkDLPN11GetInstanceEv kind:function(arm,size=0xc) addr:0x02148eac
_ZN19ActorProfileUnkDLPN6CreateEv kind:function(arm,size=0x24) addr:0x02148eb8
_ZN19ActorProfileUnkDLPNC1Ev kind:function(arm,size=0x68) addr:0x02148edc
_ZN12ActorUnkDLPNC1Ev kind:function(arm,size=0x228) addr:0x02148f44
_ZN12ActorUnkDLPN19func_ov029_0214916cEv kind:function(arm,size=0x14) addr:0x0214916c
_ZN12ActorUnkDLPN19func_ov029_02149180Ev kind:function(arm,size=0x14) addr:0x02149180
_ZN12ActorUnkDLPN19func_ov029_02149194Ev kind:function(arm,size=0x184) addr:0x02149194
_ZN12ActorUnkDLPN19func_ov029_02149318Ev kind:function(arm,size=0x14) addr:0x02149318
_ZN12ActorUnkDLPN19func_ov029_0214932cEv kind:function(arm,size=0xf4) addr:0x0214932c
_ZN12ActorUnkDLPN19func_ov029_02149420Ev kind:function(arm,size=0xbc) addr:0x02149420
_ZN12ActorUnkDLPND0Ev kind:function(arm,size=0xc4) addr:0x021494dc
_ZN12ActorUnkDLPN19func_ov029_021495a0Ev kind:function(arm,size=0x74) addr:0x021495a0
_ZN12ActorUnkDLPN19func_ov029_02149614Ev kind:function(arm,size=0x120) addr:0x02149614
_ZN12ActorUnkDLPN19func_ov029_02149734Ev kind:function(arm,size=0x58) addr:0x02149734
_ZN12ActorUnkDLPN19func_ov029_0214978cEv kind:function(arm,size=0x64) addr:0x0214978c
_ZN12ActorUnkDLPN19func_ov029_021497f0Ev kind:function(arm,size=0xc) addr:0x021497f0
_ZN12ActorUnkDLPN19func_ov029_021497fcEv kind:function(arm,size=0x1c) addr:0x021497fc
_ZN12ActorUnkDLPN19func_ov029_02149818Ev kind:function(arm,size=0xe4) addr:0x02149818
_ZN12ActorUnkDLPN19func_ov029_021498fcEv kind:function(arm,size=0x114) addr:0x021498fc
_ZN12ActorUnkDLPN19func_ov029_02149a10Ev kind:function(arm,size=0xb4) addr:0x02149a10
_ZN12ActorUnkDLPN19func_ov029_02149ac4Ev kind:function(arm,size=0x940) addr:0x02149ac4
_ZN12ActorUnkDLPN19func_ov029_0214a404Ev kind:function(arm,size=0x144) addr:0x0214a404
_ZN12ActorUnkDLPN19func_ov029_0214a548Ev kind:function(arm,size=0x4fc) addr:0x0214a548
_ZN12ActorUnkDLPN19func_ov029_0214aa44Ev kind:function(arm,size=0xe4) addr:0x0214aa44
_ZN12ActorUnkDLPN19func_ov029_0214ab28Ev kind:function(arm,size=0x650) addr:0x0214ab28
_ZN12ActorUnkDLPN19func_ov029_0214b178Ev kind:function(arm,size=0x100) addr:0x0214b178
_ZN12ActorUnkDLPN19func_ov029_0214b278Ev kind:function(arm,size=0x294) addr:0x0214b278
_ZN12ActorUnkDLPN19func_ov029_0214b50cEv kind:function(arm,size=0xd0) addr:0x0214b50c
_ZN12ActorUnkDLPN19func_ov029_0214b5dcEv kind:function(arm,size=0x418) addr:0x0214b5dc
_ZN12ActorUnkDLPN19func_ov029_0214b9f4Ev kind:function(arm,size=0x44) addr:0x0214b9f4
_ZN12ActorUnkDLPN19func_ov029_0214ba38Ev kind:function(arm,size=0xec) addr:0x0214ba38
_ZN12ActorUnkDLPN19func_ov029_0214bb24Ev kind:function(arm,size=0x14) addr:0x0214bb24
_ZN12ActorUnkDLPN19func_ov029_0214bb38Ev kind:function(arm,size=0x170) addr:0x0214bb38
_ZN12ActorUnkDLPN19func_ov029_0214bca8Ev kind:function(arm,size=0x108) addr:0x0214bca8
_ZN12ActorUnkDLPN19func_ov029_0214bdb0Ev kind:function(arm,size=0x64) addr:0x0214bdb0
_ZN12ActorUnkDLPN19func_ov029_0214be14Ev kind:function(arm,size=0x130) addr:0x0214be14
_ZN12ActorUnkDLPN19func_ov029_0214bf44Ev kind:function(arm,size=0x60) addr:0x0214bf44
_ZN12ActorUnkDLPN19func_ov029_0214bfa4Ev kind:function(arm,size=0x38) addr:0x0214bfa4
_ZN12ActorUnkDLPN19func_ov029_0214bfdcEv kind:function(arm,size=0x18) addr:0x0214bfdc
_ZN12ActorUnkDLPN19func_ov029_0214bff4Ev kind:function(arm,size=0x24) addr:0x0214bff4
_ZN12ActorUnkDLPN19func_ov029_0214c018Ev kind:function(arm,size=0x2c) addr:0x0214c018
_ZN12ActorUnkDLPN19func_ov029_0214c044Ev kind:function(arm,size=0x1c) addr:0x0214c044
_ZN19ActorProfileUnkDLPND1Ev kind:function(arm,size=0x14) addr:0x0214c060
_ZN19ActorProfileUnkBLJF11GetInstanceEv kind:function(arm,size=0xc) addr:0x0214c074
_ZN19ActorProfileUnkBLJF6CreateEv kind:function(arm,size=0x24) addr:0x0214c080
_ZN19ActorProfileUnkBLJFC1Ev kind:function(arm,size=0x70) addr:0x0214c0a4
_ZN12ActorUnkBLJF19func_ov029_0214c114Ev kind:function(arm,size=0x64) addr:0x0214c114
_ZN12ActorUnkBLJF19func_ov029_0214c178Ev kind:function(arm,size=0x12c) addr:0x0214c178
_ZN12ActorUnkBLJF19func_ov029_0214c2a4Ev kind:function(arm,size=0x60) addr:0x0214c2a4
_ZN12ActorUnkBLJF19func_ov029_0214c304Ev kind:function(arm,size=0x38) addr:0x0214c304
_ZN12ActorUnkBLJF19func_ov029_0214c33cEv kind:function(arm,size=0x18) addr:0x0214c33c
_ZN12ActorUnkBLJFC1Ev kind:function(arm,size=0x180) addr:0x0214c354
_ZN12ActorUnkBLJF19func_ov029_0214c4d4Ev kind:function(arm,size=0x12c) addr:0x0214c4d4
_ZN12ActorUnkBLJF19func_ov029_0214c600Ev kind:function(arm,size=0xf0) addr:0x0214c600
_ZN12ActorUnkBLJF19func_ov029_0214c6f0Ev kind:function(arm,size=0x10) addr:0x0214c6f0
_ZN12ActorUnkBLJF19func_ov029_0214c700Ev kind:function(arm,size=0x24) addr:0x0214c700
_ZN12ActorUnkBLJF19func_ov029_0214c724Ev kind:function(arm,size=0xb8) addr:0x0214c724
_ZN12ActorUnkBLJF19func_ov029_0214c7dcEv kind:function(arm,size=0x154) addr:0x0214c7dc
_ZN12ActorUnkBLJF19func_ov029_0214c930Ev kind:function(arm,size=0x14) addr:0x0214c930
_ZN12ActorUnkBLJF19func_ov029_0214c944Ev kind:function(arm,size=0xa8) addr:0x0214c944
_ZN12ActorUnkBLJF19func_ov029_0214c9ecEv kind:function(arm,size=0x174) addr:0x0214c9ec
_ZN12ActorUnkBLJF19func_ov029_0214cb60Ev kind:function(arm,size=0x28) addr:0x0214cb60
_ZN12ActorUnkBLJF19func_ov029_0214cb88Ev kind:function(arm,size=0x1c0) addr:0x0214cb88
_ZN12ActorUnkBLJF19func_ov029_0214cd48Ev kind:function(arm,size=0x14) addr:0x0214cd48
_ZN12ActorUnkBLJF19func_ov029_0214cd5cEv kind:function(arm,size=0x54) addr:0x0214cd5c
_ZN12ActorUnkBLJF19func_ov029_0214cdb0Ev kind:function(arm,size=0x30) addr:0x0214cdb0
_ZN12ActorUnkBLJF19func_ov029_0214cde0Ev kind:function(arm,size=0x44) addr:0x0214cde0
_ZN12ActorUnkBLJF19func_ov029_0214ce24Ev kind:function(arm,size=0x1fc) addr:0x0214ce24
_ZN12ActorUnkBLJF19func_ov029_0214d020Ev kind:function(arm,size=0xcc) addr:0x0214d020
_ZN12ActorUnkBLJF19func_ov029_0214d0ecEv kind:function(arm,size=0x38) addr:0x0214d0ec
_ZN12ActorUnkBLJF19func_ov029_0214d124Ev kind:function(arm,size=0x28) addr:0x0214d124
_ZN12ActorUnkBLJF19func_ov029_0214d14cEv kind:function(arm,size=0x11c) addr:0x0214d14c
_ZN12ActorUnkBLJF19func_ov029_0214d268Ev kind:function(arm,size=0x4) addr:0x0214d268
_ZN12ActorUnkBLJFD0Ev kind:function(arm,size=0x1c) addr:0x0214d26c
_ZN12ActorUnkBLJFD1Ev kind:function(arm,size=0x40) addr:0x0214d288
_ZN12ActorUnkBLJF19func_ov029_0214d2c8Ev kind:function(arm,size=0x48) addr:0x0214d2c8
_ZN19ActorProfileUnkBLJFD1Ev kind:function(arm,size=0x14) addr:0x0214d310
_ZN19ActorProfileUnkMDYG11GetInstanceEv kind:function(arm,size=0xc) addr:0x0214d324
_ZN19ActorProfileUnkMDYG6CreateEv kind:function(arm,size=0x28) addr:0x0214d330
_ZN19ActorProfileUnkMDYGC1Ev kind:function(arm,size=0x68) addr:0x0214d358
_ZN12ActorUnkMDYGC1Ev kind:function(arm,size=0x248) addr:0x0214d3c0
_ZN12ActorUnkMDYG19func_ov029_0214d608Ev kind:function(arm,size=0x14) addr:0x0214d608
_ZN12ActorUnkMDYGD1Ev kind:function(arm,size=0x68) addr:0x0214d61c
_ZN12ActorUnkMDYGD0Ev kind:function(arm,size=0x70) addr:0x0214d684
_ZN12ActorUnkMDYG19func_ov029_0214d6f4Ev kind:function(arm,size=0x11c) addr:0x0214d6f4
_ZN12ActorUnkMDYG19func_ov029_0214d810Ev kind:function(arm,size=0x74) addr:0x0214d810
_ZN12ActorUnkMDYG19func_ov029_0214d884Ev kind:function(arm,size=0x38) addr:0x0214d884
_ZN12ActorUnkMDYG19func_ov029_0214d8bcEv kind:function(arm,size=0x1c) addr:0x0214d8bc
_ZN12ActorUnkMDYG19func_ov029_0214d8d8Ev kind:function(arm,size=0x24) addr:0x0214d8d8
_ZN12ActorUnkMDYG19func_ov029_0214d8fcEv kind:function(arm,size=0x64) addr:0x0214d8fc
_ZN12ActorUnkMDYG19func_ov029_0214d960Ev kind:function(arm,size=0x184) addr:0x0214d960
_ZN12ActorUnkMDYG19func_ov029_0214dae4Ev kind:function(arm,size=0x9c) addr:0x0214dae4
_ZN12ActorUnkMDYG19func_ov029_0214db80Ev kind:function(arm,size=0xe0) addr:0x0214db80
_ZN12ActorUnkMDYG19func_ov029_0214dc60Ev kind:function(arm,size=0xc) addr:0x0214dc60
_ZN12ActorUnkMDYG19func_ov029_0214dc6cEv kind:function(arm,size=0x140) addr:0x0214dc6c
_ZN12ActorUnkMDYG19func_ov029_0214ddacEv kind:function(arm,size=0x28) addr:0x0214ddac
_ZN12ActorUnkMDYG19func_ov029_0214ddd4Ev kind:function(arm,size=0x9c) addr:0x0214ddd4
_ZN12ActorUnkMDYG19func_ov029_0214de70Ev kind:function(arm,size=0x180) addr:0x0214de70
_ZN12ActorUnkMDYG19func_ov029_0214dff0Ev kind:function(arm,size=0x20) addr:0x0214dff0
_ZN12ActorUnkMDYG19func_ov029_0214e010Ev kind:function(arm,size=0x78) addr:0x0214e010
_ZN12ActorUnkMDYG19func_ov029_0214e088Ev kind:function(arm,size=0x8c) addr:0x0214e088
_ZN12ActorUnkMDYG19func_ov029_0214e114Ev kind:function(arm,size=0x29c) addr:0x0214e114
_ZN12ActorUnkMDYG19func_ov029_0214e3b0Ev kind:function(arm,size=0x10) addr:0x0214e3b0
_ZN12ActorUnkMDYG19func_ov029_0214e3c0Ev kind:function(arm,size=0x178) addr:0x0214e3c0
_ZN12ActorUnkMDYG19func_ov029_0214e538Ev kind:function(arm,size=0xc0) addr:0x0214e538
_ZN12ActorUnkMDYG19func_ov029_0214e5f8Ev kind:function(arm,size=0xbc) addr:0x0214e5f8
_ZN12ActorUnkMDYG19func_ov029_0214e6b4Ev kind:function(arm,size=0x74) addr:0x0214e6b4
_ZN12ActorUnkMDYG19func_ov029_0214e728Ev kind:function(arm,size=0x70) addr:0x0214e728
_ZN12ActorUnkMDYG19func_ov029_0214e798Ev kind:function(arm,size=0x104) addr:0x0214e798
_ZN12ActorUnkMDYG19func_ov029_0214e89cEv kind:function(arm,size=0xe8) addr:0x0214e89c
_ZN12ActorUnkMDYG19func_ov029_0214e984Ev kind:function(arm,size=0x88) addr:0x0214e984
_ZN12ActorUnkMDYG19func_ov029_0214ea0cEv kind:function(arm,size=0x1dc) addr:0x0214ea0c
_ZN12ActorUnkMDYG19func_ov029_0214ebe8Ev kind:function(arm,size=0x14c) addr:0x0214ebe8
_ZN12ActorUnkMDYG19func_ov029_0214ed34Ev kind:function(arm,size=0x60) addr:0x0214ed34
_ZN12ActorUnkMDYG19func_ov029_0214ed94Ev kind:function(arm,size=0x344) addr:0x0214ed94
_ZN12ActorUnkMDYG19func_ov029_0214f0d8Ev kind:function(arm,size=0x58) addr:0x0214f0d8
_ZN12ActorUnkMDYG19func_ov029_0214f130Ev kind:function(arm,size=0x54) addr:0x0214f130
_ZN12ActorUnkMDYG19func_ov029_0214f184Ev kind:function(arm,size=0x28) addr:0x0214f184
_ZN12ActorUnkMDYG19func_ov029_0214f1acEv kind:function(arm,size=0x14c) addr:0x0214f1ac
_ZN12ActorUnkMDYG19func_ov029_0214f2f8Ev kind:function(arm,size=0x160) addr:0x0214f2f8
_ZN12ActorUnkMDYG19func_ov029_0214f458Ev kind:function(arm,size=0x30) addr:0x0214f458
_ZN12ActorUnkMDYG19func_ov029_0214f488Ev kind:function(arm,size=0x6c) addr:0x0214f488
_ZN12ActorUnkMDYG19func_ov029_0214f4f4Ev kind:function(arm,size=0x1a8) addr:0x0214f4f4
_ZN12ActorUnkMDYG19func_ov029_0214f69cEv kind:function(arm,size=0xc8) addr:0x0214f69c
_ZN12ActorUnkMDYG19func_ov029_0214f764Ev kind:function(arm,size=0xd4) addr:0x0214f764
_ZN12ActorUnkMDYG19func_ov029_0214f838Ev kind:function(arm,size=0x58) addr:0x0214f838
_ZN12ActorUnkMDYG19func_ov029_0214f890Ev kind:function(arm,size=0xa4) addr:0x0214f890
_ZN12ActorUnkMDYG19func_ov029_0214f934Ev kind:function(arm,size=0x54) addr:0x0214f934
_ZN12ActorUnkMDYG19func_ov029_0214f988Ev kind:function(arm,size=0xf0) addr:0x0214f988
_ZN12ActorUnkMDYG19func_ov029_0214fa78Ev kind:function(arm,size=0x50) addr:0x0214fa78
_ZN12ActorUnkMDYG19func_ov029_0214fac8Ev kind:function(arm,size=0x30) addr:0x0214fac8
_ZN12ActorUnkMDYG19func_ov029_0214faf8Ev kind:function(arm,size=0x18) addr:0x0214faf8
_ZN12ActorUnkMDYG19func_ov029_0214fb10Ev kind:function(arm,size=0x38) addr:0x0214fb10
_ZN12ActorUnkMDYG19func_ov029_0214fb48Ev kind:function(arm,size=0xf4) addr:0x0214fb48
_ZN19ActorProfileUnkMDYGD1Ev kind:function(arm,size=0x14) addr:0x0214fc3c
_ZN19ActorProfileUnkPRSP11GetInstanceEv kind:function(arm,size=0xc) addr:0x0214fc50
_ZN19ActorProfileUnkPRSP6CreateEv kind:function(arm,size=0x24) addr:0x0214fc5c
_ZN19ActorProfileUnkPRSPC1Ev kind:function(arm,size=0x7c) addr:0x0214fc80
_ZN12ActorUnkPRSPC1Ev kind:function(arm,size=0x25c) addr:0x0214fcfc
_ZN12ActorUnkPRSP19func_ov029_0214ff58Ev kind:function(arm,size=0x14) addr:0x0214ff58
_ZN12ActorUnkPRSP19func_ov029_0214ff6cEv kind:function(arm,size=0x14) addr:0x0214ff6c
_ZN12ActorUnkPRSP19func_ov029_0214ff80Ev kind:function(arm,size=0x134) addr:0x0214ff80
_ZN12ActorUnkPRSP19func_ov029_021500b4Ev kind:function(arm,size=0xc0) addr:0x021500b4
_ZN12ActorUnkPRSP19func_ov029_02150174Ev kind:function(arm,size=0x70) addr:0x02150174
_ZN12ActorUnkPRSP19func_ov029_021501e4Ev kind:function(arm,size=0xb0) addr:0x021501e4
_ZN12ActorUnkPRSP19func_ov029_02150294Ev kind:function(arm,size=0x2ec) addr:0x02150294
_ZN12ActorUnkPRSP19func_ov029_02150580Ev kind:function(arm,size=0x6c) addr:0x02150580
_ZN12ActorUnkPRSP19func_ov029_021505ecEv kind:function(arm,size=0x1ec) addr:0x021505ec
_ZN12ActorUnkPRSP19func_ov029_021507d8Ev kind:function(arm,size=0x28) addr:0x021507d8
_ZN12ActorUnkPRSP19func_ov029_02150800Ev kind:function(arm,size=0x20) addr:0x02150800
_ZN12ActorUnkPRSP19func_ov029_02150820Ev kind:function(arm,size=0xd8) addr:0x02150820
_ZN12ActorUnkPRSP19func_ov029_021508f8Ev kind:function(arm,size=0x2c) addr:0x021508f8
_ZN12ActorUnkPRSP19func_ov029_02150924Ev kind:function(arm,size=0x40) addr:0x02150924
_ZN12ActorUnkPRSP19func_ov029_02150964Ev kind:function(arm,size=0x1c) addr:0x02150964
_ZN12ActorUnkPRSP19func_ov029_02150980Ev kind:function(arm,size=0x550) addr:0x02150980
_ZN12ActorUnkPRSP19func_ov029_02150ed0Ev kind:function(arm,size=0x80) addr:0x02150ed0
_ZN12ActorUnkPRSP19func_ov029_02150f50Ev kind:function(arm,size=0x314) addr:0x02150f50
_ZN12ActorUnkPRSP19func_ov029_02151264Ev kind:function(arm,size=0x4) addr:0x02151264
_ZN12ActorUnkPRSP19func_ov029_02151268Ev kind:function(arm,size=0xd8) addr:0x02151268
_ZN12ActorUnkPRSP19func_ov029_02151340Ev kind:function(arm,size=0x98) addr:0x02151340
_ZN12ActorUnkPRSP19func_ov029_021513d8Ev kind:function(arm,size=0x3b4) addr:0x021513d8
_ZN12ActorUnkPRSP19func_ov029_0215178cEv kind:function(arm,size=0x2c) addr:0x0215178c
_ZN12ActorUnkPRSP19func_ov029_021517b8Ev kind:function(arm,size=0x184) addr:0x021517b8
_ZN12ActorUnkPRSP19func_ov029_0215193cEv kind:function(arm,size=0xc) addr:0x0215193c
_ZN12ActorUnkPRSP19func_ov029_02151948Ev kind:function(arm,size=0x40) addr:0x02151948
_ZN12ActorUnkPRSP19func_ov029_02151988Ev kind:function(arm,size=0x4) addr:0x02151988
_ZN12ActorUnkPRSP19func_ov029_0215198cEv kind:function(arm,size=0x18) addr:0x0215198c
_ZN12ActorUnkPRSP19func_ov029_021519a4Ev kind:function(arm,size=0xa8) addr:0x021519a4
_ZN12ActorUnkPRSP19func_ov029_02151a4cEv kind:function(arm,size=0x224) addr:0x02151a4c
_ZN12ActorUnkPRSP19func_ov029_02151c70Ev kind:function(arm,size=0x70) addr:0x02151c70
_ZN12ActorUnkPRSP19func_ov029_02151ce0Ev kind:function(arm,size=0x58c) addr:0x02151ce0
_ZN12ActorUnkPRSP19func_ov029_0215226cEv kind:function(arm,size=0x34) addr:0x0215226c
_ZN12ActorUnkPRSP19func_ov029_021522a0Ev kind:function(arm,size=0xa8) addr:0x021522a0
_ZN12ActorUnkPRSP19func_ov029_02152348Ev kind:function(arm,size=0x14) addr:0x02152348
_ZN12ActorUnkPRSP19func_ov029_0215235cEv kind:function(arm,size=0xec) addr:0x0215235c
_ZN12ActorUnkPRSP19func_ov029_02152448Ev kind:function(arm,size=0x158) addr:0x02152448
_ZN12ActorUnkPRSP19func_ov029_021525a0Ev kind:function(arm,size=0x4c) addr:0x021525a0
_ZN12ActorUnkPRSP19func_ov029_021525ecEv kind:function(arm,size=0xa0) addr:0x021525ec
_ZN12ActorUnkPRSP19func_ov029_0215268cEv kind:function(arm,size=0x164) addr:0x0215268c
_ZN12ActorUnkPRSP19func_ov029_021527f0Ev kind:function(arm,size=0x9c) addr:0x021527f0
_ZN12ActorUnkPRSP19func_ov029_0215288cEv kind:function(arm,size=0xa0) addr:0x0215288c
_ZN12ActorUnkPRSP19func_ov029_0215292cEv kind:function(arm,size=0x88) addr:0x0215292c
_ZN12ActorUnkPRSP19func_ov029_021529b4Ev kind:function(arm,size=0x6c) addr:0x021529b4
_ZN12ActorUnkPRSP19func_ov029_02152a20Ev kind:function(arm,size=0x6c) addr:0x02152a20
_ZN12ActorUnkPRSP19func_ov029_02152a8cEv kind:function(arm,size=0x64) addr:0x02152a8c
_ZN12ActorUnkPRSP19func_ov029_02152af0Ev kind:function(arm,size=0x30) addr:0x02152af0
_ZN12ActorUnkPRSP19func_ov029_02152b20Ev kind:function(arm,size=0xe0) addr:0x02152b20
_ZN12ActorUnkPRSP19func_ov029_02152c00Ev kind:function(arm,size=0x18) addr:0x02152c00
_ZN12ActorUnkPRSP19func_ov029_02152c18Ev kind:function(arm,size=0xe4) addr:0x02152c18
_ZN12ActorUnkPRSP19func_ov029_02152cfcEv kind:function(arm,size=0x2dc) addr:0x02152cfc
_ZN12ActorUnkPRSP19func_ov029_02152fd8Ev kind:function(arm,size=0x64) addr:0x02152fd8
_ZN12ActorUnkPRSP19func_ov029_0215303cEv kind:function(arm,size=0x58) addr:0x0215303c
_ZN12ActorUnkPRSP19func_ov029_02153094Ev kind:function(arm,size=0x28) addr:0x02153094
_ZN12ActorUnkPRSP19func_ov029_021530bcEv kind:function(arm,size=0x40) addr:0x021530bc
_ZN12ActorUnkPRSP19func_ov029_021530fcEv kind:function(arm,size=0x24) addr:0x021530fc
_ZN12ActorUnkPRSP19func_ov029_02153120Ev kind:function(arm,size=0x10) addr:0x02153120
_ZN12ActorUnkPRSP19func_ov029_02153130Ev kind:function(arm,size=0x8) addr:0x02153130
_ZN12ActorUnkPRSPD0Ev kind:function(arm,size=0x1c) addr:0x02153138
_ZN12ActorUnkPRSP19func_ov029_02153154Ev kind:function(arm,size=0x1c) addr:0x02153154
_ZN12ActorUnkPRSPD1Ev kind:function(arm,size=0x48) addr:0x02153170
_ZN12ActorUnkPRSP19func_ov029_021531b8Ev kind:function(arm,size=0x50) addr:0x021531b8
_ZN19ActorProfileUnkPRSPD1Ev kind:function(arm,size=0x14) addr:0x02153208
data_ov029_0215321c kind:data(any) addr:0x0215321c
data_ov029_0215322c kind:data(any) addr:0x0215322c
data_ov029_0215323c kind:data(any) addr:0x0215323c
data_ov029_0215323e kind:data(any) addr:0x0215323e
data_ov029_02153250 kind:data(any) addr:0x02153250
data_ov029_02153260 kind:data(any) addr:0x02153260
data_ov029_02153280 kind:data(any) addr:0x02153280
data_ov029_02153290 kind:data(any) addr:0x02153290
data_ov029_021532a0 kind:data(any) addr:0x021532a0
data_ov029_021532b0 kind:data(any) addr:0x021532b0
data_ov029_021532c0 kind:data(any) addr:0x021532c0
data_ov029_021532d0 kind:data(any) addr:0x021532d0
data_ov029_021532e0 kind:data(any) addr:0x021532e0
data_ov029_021532f0 kind:data(any) addr:0x021532f0
data_ov029_02153300 kind:data(any) addr:0x02153300
__sinit_ov029_02153310 kind:function(arm,size=0x70) addr:0x02153310
__sinit_ov029_02153380 kind:function(arm,size=0x50) addr:0x02153380
__sinit_ov029_021533d0 kind:function(arm,size=0x50) addr:0x021533d0
__sinit_ov029_02153420 kind:function(arm,size=0x50) addr:0x02153420
__sinit_ov029_02153470 kind:function(arm,size=0x50) addr:0x02153470
__sinit_ov029_021534c0 kind:function(arm,size=0x50) addr:0x021534c0
__sinit_ov029_02153510 kind:function(arm,size=0x50) addr:0x02153510
__sinit_ov029_02153560 kind:function(arm,size=0x50) addr:0x02153560
__sinit_ov029_021535b0 kind:function(arm,size=0x50) addr:0x021535b0
__sinit_ov029_02153600 kind:function(arm,size=0x50) addr:0x02153600
__sinit_ov029_02153650 kind:function(arm,size=0x50) addr:0x02153650
__sinit_ov029_021536a0 kind:function(arm,size=0x50) addr:0x021536a0
__sinit_ov029_021536f0 kind:function(arm,size=0x50) addr:0x021536f0
__sinit_ov029_02153740 kind:function(arm,size=0x50) addr:0x02153740
__sinit_ov029_02153790 kind:function(arm,size=0x50) addr:0x02153790
__sinit_ov029_021537e0 kind:function(arm,size=0x90) addr:0x021537e0
__sinit_ov029_02153870 kind:function(arm,size=0x5c) addr:0x02153870
__sinit_ov029_021538cc kind:function(arm,size=0xd0) addr:0x021538cc
__sinit_ov029_0215399c kind:function(arm,size=0x84) addr:0x0215399c
.p__sinit_ov029_02153310 kind:data(word) addr:0x02153a20
.p__sinit_ov029_02153380 kind:data(word) addr:0x02153a24
.p__sinit_ov029_021533d0 kind:data(word) addr:0x02153a28
.p__sinit_ov029_02153420 kind:data(word) addr:0x02153a2c
.p__sinit_ov029_02153470 kind:data(word) addr:0x02153a30
.p__sinit_ov029_021534c0 kind:data(word) addr:0x02153a34
.p__sinit_ov029_02153510 kind:data(word) addr:0x02153a38
.p__sinit_ov029_02153560 kind:data(word) addr:0x02153a3c
.p__sinit_ov029_021535b0 kind:data(word) addr:0x02153a40
.p__sinit_ov029_02153600 kind:data(word) addr:0x02153a44
.p__sinit_ov029_02153650 kind:data(word) addr:0x02153a48
.p__sinit_ov029_021536a0 kind:data(word) addr:0x02153a4c
.p__sinit_ov029_021536f0 kind:data(word) addr:0x02153a50
.p__sinit_ov029_02153740 kind:data(word) addr:0x02153a54
.p__sinit_ov029_02153790 kind:data(word) addr:0x02153a58
.p__sinit_ov029_021537e0 kind:data(word) addr:0x02153a5c
.p__sinit_ov029_02153870 kind:data(word) addr:0x02153a60
.p__sinit_ov029_021538cc kind:data(word) addr:0x02153a64
.p__sinit_ov029_0215399c kind:data(word) addr:0x02153a68
data_ov029_02153a80 kind:data(any) addr:0x02153a80
data_ov029_02153a90 kind:data(any) addr:0x02153a90
data_ov029_02153aa4 kind:data(any) addr:0x02153aa4
data_ov029_02153ac0 kind:data(any) addr:0x02153ac0
data_ov029_02153aec kind:data(any) addr:0x02153aec
data_ov029_02153b34 kind:data(any) addr:0x02153b34 ambiguous
data_ov029_02153b58 kind:data(any) addr:0x02153b58
data_ov029_02153bc4 kind:data(any) addr:0x02153bc4
data_ov029_02153be0 kind:data(any) addr:0x02153be0
data_ov029_02153c4c kind:data(any) addr:0x02153c4c
data_ov029_02153c68 kind:data(any) addr:0x02153c68
data_ov029_02153cd4 kind:data(any) addr:0x02153cd4
data_ov029_02153cf0 kind:data(any) addr:0x02153cf0
data_ov029_02153d54 kind:data(any) addr:0x02153d54
data_ov029_02153d5c kind:data(any) addr:0x02153d5c
data_ov029_02153d68 kind:data(any) addr:0x02153d68
data_ov029_02153d80 kind:data(any) addr:0x02153d80
data_ov029_02153d9c kind:data(any) addr:0x02153d9c
data_ov029_02153e20 kind:data(any) addr:0x02153e20
data_ov029_02153ea4 kind:data(any) addr:0x02153ea4
data_ov029_02153ec0 kind:data(any) addr:0x02153ec0
data_ov029_02153f2c kind:data(any) addr:0x02153f2c
data_ov029_02153f48 kind:data(any) addr:0x02153f48
data_ov029_02153fb4 kind:data(any) addr:0x02153fb4
data_ov029_02153fd0 kind:data(any) addr:0x02153fd0
data_ov029_02154044 kind:data(any) addr:0x02154044
data_ov029_02154060 kind:data(any) addr:0x02154060
data_ov029_02154074 kind:data(any) addr:0x02154074 ambiguous
data_ov029_02154088 kind:data(any) addr:0x02154088
data_ov029_02154094 kind:data(any) addr:0x02154094 ambiguous
data_ov029_021540d8 kind:data(any) addr:0x021540d8
data_ov029_021540f4 kind:data(any) addr:0x021540f4
data_ov029_02154108 kind:data(any) addr:0x02154108 ambiguous
data_ov029_02154110 kind:data(any) addr:0x02154110
data_ov029_02154138 kind:data(any) addr:0x02154138
data_ov029_02154164 kind:data(any) addr:0x02154164
data_ov029_021541b4 kind:data(any) addr:0x021541b4
data_ov029_021541d0 kind:data(any) addr:0x021541d0
data_ov029_02154220 kind:data(any) addr:0x02154220
data_ov029_0215423c kind:data(any) addr:0x0215423c
data_ov029_021542a8 kind:data(any) addr:0x021542a8
data_ov029_021542c4 kind:data(any) addr:0x021542c4
data_ov029_02154324 kind:data(any) addr:0x02154324
data_ov029_02154340 kind:data(any) addr:0x02154340
data_ov029_02154394 kind:data(any) addr:0x02154394
data_ov029_021543b0 kind:data(any) addr:0x021543b0
data_ov029_021543cc kind:data(any) addr:0x021543cc
data_ov029_02154418 kind:data(any) addr:0x02154418
_ZTV19data_ov029_0215442c kind:data(any) addr:0x0215442c
data_ov029_02154450 kind:data(any) addr:0x02154450
data_ov029_02154498 kind:data(any) addr:0x02154498
data_ov029_021544b0 kind:data(any) addr:0x021544b0
data_ov029_021544c8 kind:data(any) addr:0x021544c8
data_ov029_021544e8 kind:data(any) addr:0x021544e8
data_ov029_0215452c kind:data(any) addr:0x0215452c
_ZTV19data_ov029_0215458c kind:data(any) addr:0x0215458c
data_ov029_021545f8 kind:data(any) addr:0x021545f8
_ZTV19data_ov029_0215460c kind:data(any) addr:0x0215460c
data_ov029_02154630 kind:data(any) addr:0x02154630
data_ov029_02154660 kind:data(any) addr:0x02154660
data_ov029_02154678 kind:data(any) addr:0x02154678
data_ov029_02154690 kind:data(any) addr:0x02154690
_ZTV19data_ov029_021546a8 kind:data(any) addr:0x021546a8
data_ov029_02154700 kind:data(any) addr:0x02154700 ambiguous
data_ov029_02154714 kind:data(any) addr:0x02154714
_ZTV19data_ov029_02154728 kind:data(any) addr:0x02154728
data_ov029_0215474c kind:data(any) addr:0x0215474c
data_ov029_02154761 kind:data(any) addr:0x02154761 ambiguous
data_ov029_02154764 kind:data(any) addr:0x02154764
data_ov029_0215477c kind:data(any) addr:0x0215477c
data_ov029_02154794 kind:data(any) addr:0x02154794
_ZTV19data_ov029_021547ac kind:data(any) addr:0x021547ac
data_ov029_02154810 kind:data(any) addr:0x02154810
data_ov029_02154820 kind:data(any) addr:0x02154820
data_ov029_021548e8 kind:data(any) addr:0x021548e8
data_ov029_021548f4 kind:data(any) addr:0x021548f4
data_ov029_021548fc kind:data(any) addr:0x021548fc
_ZTV19data_ov029_02154914 kind:data(any) addr:0x02154914
data_ov029_02154940 kind:data(any) addr:0x02154940
data_ov029_0215496c kind:data(any) addr:0x0215496c
_ZTV19data_ov029_021549ac kind:data(any) addr:0x021549ac
data_ov029_02154a10 kind:data(any) addr:0x02154a10
data_ov029_02154a78 kind:data(any) addr:0x02154a78
data_ov029_02154ae0 kind:bss addr:0x02154ae0
data_ov029_02154ae8 kind:bss addr:0x02154ae8
data_ov029_02154af4 kind:bss addr:0x02154af4
data_ov029_02154b00 kind:bss addr:0x02154b00
data_ov029_02154b74 kind:bss addr:0x02154b74 ambiguous
data_ov029_02154bd4 kind:bss addr:0x02154bd4
data_ov029_02154bd8 kind:bss addr:0x02154bd8
data_ov029_02154be0 kind:bss addr:0x02154be0 ambiguous
data_ov029_02154be4 kind:bss addr:0x02154be4
data_ov029_02154ca4 kind:bss addr:0x02154ca4 ambiguous
data_ov029_02154cb8 kind:bss addr:0x02154cb8
data_ov029_02154cbc kind:bss addr:0x02154cbc
data_ov029_02154cc8 kind:bss addr:0x02154cc8
data_ov029_02154d9c kind:bss addr:0x02154d9c
data_ov029_02154da0 kind:bss addr:0x02154da0
data_ov029_02154dac kind:bss addr:0x02154dac
data_ov029_02154e6c kind:bss addr:0x02154e6c ambiguous
data_ov029_02154e80 kind:bss addr:0x02154e80
data_ov029_02154e84 kind:bss addr:0x02154e84
data_ov029_02154e90 kind:bss addr:0x02154e90
data_ov029_02154eb0 kind:bss addr:0x02154eb0
data_ov029_02154ec0 kind:bss addr:0x02154ec0 ambiguous
data_ov029_02154f28 kind:bss addr:0x02154f28 ambiguous
data_ov029_02154f64 kind:bss addr:0x02154f64
data_ov029_02154f68 kind:bss addr:0x02154f68
data_ov029_02154f74 kind:bss addr:0x02154f74
data_ov029_02154f88 kind:bss addr:0x02154f88 ambiguous
data_ov029_02155048 kind:bss addr:0x02155048
data_ov029_0215504c kind:bss addr:0x0215504c
data_ov029_02155058 kind:bss addr:0x02155058
data_ov029_02155064 kind:bss addr:0x02155064 ambiguous
data_ov029_02155070 kind:bss addr:0x02155070 ambiguous
data_ov029_0215512c kind:bss addr:0x0215512c
data_ov029_02155130 kind:bss addr:0x02155130
data_ov029_0215513c kind:bss addr:0x0215513c
data_ov029_02155190 kind:bss addr:0x02155190 ambiguous
data_ov029_02155200 kind:bss addr:0x02155200 ambiguous
data_ov029_02155210 kind:bss addr:0x02155210
data_ov029_02155214 kind:bss addr:0x02155214
data_ov029_02155220 kind:bss addr:0x02155220
data_ov029_021552f4 kind:bss addr:0x021552f4
data_ov029_021552f8 kind:bss addr:0x021552f8
data_ov029_02155304 kind:bss addr:0x02155304
data_ov029_021553d8 kind:bss addr:0x021553d8
data_ov029_021553f8 kind:bss addr:0x021553f8
data_ov029_021553fc kind:bss addr:0x021553fc
data_ov029_02155408 kind:bss addr:0x02155408
data_ov029_02155428 kind:bss addr:0x02155428
data_ov029_021554dc kind:bss addr:0x021554dc
data_ov029_021554fc kind:bss addr:0x021554fc
data_ov029_02155500 kind:bss addr:0x02155500
data_ov029_0215550c kind:bss addr:0x0215550c
data_ov029_021555e0 kind:bss addr:0x021555e0
data_ov029_021555e4 kind:bss addr:0x021555e4
data_ov029_021555f0 kind:bss addr:0x021555f0
data_ov029_021556c4 kind:bss addr:0x021556c4
data_ov029_021556e4 kind:bss addr:0x021556e4
data_ov029_021556e8 kind:bss addr:0x021556e8
data_ov029_021556f4 kind:bss addr:0x021556f4
data_ov029_021557c8 kind:bss addr:0x021557c8
data_ov029_021557e8 kind:bss addr:0x021557e8
data_ov029_021557ec kind:bss addr:0x021557ec
data_ov029_021557f8 kind:bss addr:0x021557f8
data_ov029_0215583c kind:bss addr:0x0215583c
data_ov029_02155844 kind:bss addr:0x02155844
data_ov029_02155850 kind:bss addr:0x02155850
data_ov029_0215585c kind:bss addr:0x0215585c
data_ov029_02155868 kind:bss addr:0x02155868
data_ov029_02155874 kind:bss addr:0x02155874
data_ov029_02155880 kind:bss addr:0x02155880
data_ov029_02155890 kind:bss addr:0x02155890
data_ov029_0215589c kind:bss addr:0x0215589c
data_ov029_021558b4 kind:bss addr:0x021558b4
data_ov029_021558c4 kind:bss addr:0x021558c4
data_ov029_02155990 kind:bss addr:0x02155990 ambiguous
data_ov029_0215599c kind:bss addr:0x0215599c
data_ov029_021559a0 kind:bss addr:0x021559a0
data_ov029_021559b8 kind:bss addr:0x021559b8
data_ov029_02155a90 kind:bss addr:0x02155a90
data_ov029_02155a94 kind:bss addr:0x02155a94
data_ov029_02155aa0 kind:bss addr:0x02155aa0
data_ov029_02155aac kind:bss addr:0x02155aac
data_ov029_02155ad0 kind:bss addr:0x02155ad0
data_ov029_02155ba8 kind:bss addr:0x02155ba8
data_ov029_02155bac kind:bss addr:0x02155bac
data_ov029_02155bb4 kind:bss addr:0x02155bb4 ambiguous
data_ov029_02155bb8 kind:bss addr:0x02155bb8
data_ov029_02155bc4 kind:bss addr:0x02155bc4
data_ov029_02155c90 kind:bss addr:0x02155c90 ambiguous
