func_ov098_02181040 kind:function(arm,size=0x30) addr:0x02181040
func_ov098_02181070 kind:function(arm,size=0x68) addr:0x02181070
_ZN16ActorTypeUnkEFWV11GetInstanceEv kind:function(arm,size=0xc) addr:0x021810d8
_ZN16ActorTypeUnkEFWV6CreateEv kind:function(arm,size=0x24) addr:0x021810e4
_ZN16ActorTypeUnkEFWVC1Ev kind:function(arm,size=0x74) addr:0x02181108
_ZN12ActorUnkEFWV19func_ov098_0218117cEv kind:function(arm,size=0x9c) addr:0x0218117c
_ZN12ActorUnkEFWV19func_ov098_02181218Ev kind:function(arm,size=0x14) addr:0x02181218
_ZN12ActorUnkEFWV19func_ov098_0218122cEv kind:function(arm,size=0x14) addr:0x0218122c
_ZN12ActorUnkEFWV19func_ov098_02181240Ev kind:function(arm,size=0x9c) addr:0x02181240
_ZN12ActorUnkEFWV19func_ov098_021812dcEv kind:function(arm,size=0x9c) addr:0x021812dc
_ZN12ActorUnkEFWV19func_ov098_02181378Ev kind:function(arm,size=0x50) addr:0x02181378
_ZN12ActorUnkEFWV19func_ov098_021813c8Ev kind:function(arm,size=0x14) addr:0x021813c8
_ZN12ActorUnkEFWV19func_ov098_021813dcEv kind:function(arm,size=0x34) addr:0x021813dc
_ZN12ActorUnkEFWV19func_ov098_02181410Ev kind:function(arm,size=0x1c) addr:0x02181410
_ZN12ActorUnkEFWV19func_ov098_0218142cEv kind:function(arm,size=0x16c) addr:0x0218142c
_ZN12ActorUnkEFWV19func_ov098_02181598Ev kind:function(arm,size=0x38) addr:0x02181598
_ZN12ActorUnkEFWV19func_ov098_021815d0Ev kind:function(arm,size=0x30) addr:0x021815d0
_ZN12ActorUnkEFWV19func_ov098_02181600Ev kind:function(arm,size=0x24) addr:0x02181600
_ZN12ActorUnkEFWV19func_ov098_02181624Ev kind:function(arm,size=0x10) addr:0x02181624
_ZN12ActorUnkEFWV19func_ov098_02181634Ev kind:function(arm,size=0x8) addr:0x02181634
_ZN12ActorUnkEFWV19func_ov098_0218163cEv kind:function(arm,size=0x1c) addr:0x0218163c
_ZN12ActorUnkEFWV19func_ov098_02181658Ev kind:function(arm,size=0x1c) addr:0x02181658
_ZN16ActorTypeUnkEFWVD1Ev kind:function(arm,size=0x14) addr:0x02181674
_ZN16ActorTypeUnkEFWI11GetInstanceEv kind:function(arm,size=0xc) addr:0x02181688
_ZN16ActorTypeUnkEFWI6CreateEv kind:function(arm,size=0x24) addr:0x02181694
_ZN16ActorTypeUnkEFWIC1Ev kind:function(arm,size=0x60) addr:0x021816b8
_ZN12ActorUnkEFWI19func_ov098_02181718Ev kind:function(arm,size=0x20) addr:0x02181718
_ZN12ActorUnkEFWI19func_ov098_02181738Ev kind:function(arm,size=0x9c) addr:0x02181738
_ZN12ActorUnkEFWI19func_ov098_021817d4Ev kind:function(arm,size=0x1c) addr:0x021817d4
_ZN12ActorUnkEFWI19func_ov098_021817f0Ev kind:function(arm,size=0x30) addr:0x021817f0
_ZN12ActorUnkEFWI19func_ov098_02181820Ev kind:function(arm,size=0x38) addr:0x02181820
_ZN16ActorTypeUnkEFWID1Ev kind:function(arm,size=0x14) addr:0x02181858
_ZN16ActorTypeUnkEFRP11GetInstanceEv kind:function(arm,size=0xc) addr:0x0218186c
_ZN16ActorTypeUnkEFRP6CreateEv kind:function(arm,size=0x24) addr:0x02181878
_ZN16ActorTypeUnkEFRPC1Ev kind:function(arm,size=0x74) addr:0x0218189c
_ZN12ActorUnkEFRP19func_ov098_02181910Ev kind:function(arm,size=0x90) addr:0x02181910
_ZN12ActorUnkEFRP19func_ov098_021819a0Ev kind:function(arm,size=0x90) addr:0x021819a0
_ZN12ActorUnkEFRP19func_ov098_02181a30Ev kind:function(arm,size=0x9c) addr:0x02181a30
_ZN12ActorUnkEFRP19func_ov098_02181accEv kind:function(arm,size=0x50) addr:0x02181acc
_ZN12ActorUnkEFRP19func_ov098_02181b1cEv kind:function(arm,size=0x14) addr:0x02181b1c
_ZN12ActorUnkEFRP19func_ov098_02181b30Ev kind:function(arm,size=0x58) addr:0x02181b30
_ZN12ActorUnkEFRP19func_ov098_02181b88Ev kind:function(arm,size=0x1c) addr:0x02181b88
_ZN12ActorUnkEFRP19func_ov098_02181ba4Ev kind:function(arm,size=0x16c) addr:0x02181ba4
_ZN12ActorUnkEFRP19func_ov098_02181d10Ev kind:function(arm,size=0x38) addr:0x02181d10
_ZN12ActorUnkEFRP19func_ov098_02181d48Ev kind:function(arm,size=0x30) addr:0x02181d48
_ZN16ActorTypeUnkEFRPD1Ev kind:function(arm,size=0x14) addr:0x02181d78
_ZN16ActorTypeUnkEFRI11GetInstanceEv kind:function(arm,size=0xc) addr:0x02181d8c
_ZN16ActorTypeUnkEFRI6CreateEv kind:function(arm,size=0x24) addr:0x02181d98
_ZN16ActorTypeUnkEFRIC1Ev kind:function(arm,size=0x60) addr:0x02181dbc
_ZN12ActorUnkEFRI19func_ov098_02181e1cEv kind:function(arm,size=0x20) addr:0x02181e1c
_ZN12ActorUnkEFRI19func_ov098_02181e3cEv kind:function(arm,size=0x9c) addr:0x02181e3c
_ZN12ActorUnkEFRI19func_ov098_02181ed8Ev kind:function(arm,size=0x1c) addr:0x02181ed8
_ZN12ActorUnkEFRI19func_ov098_02181ef4Ev kind:function(arm,size=0x30) addr:0x02181ef4
_ZN12ActorUnkEFRI19func_ov098_02181f24Ev kind:function(arm,size=0x38) addr:0x02181f24
_ZN16ActorTypeUnkEFRID1Ev kind:function(arm,size=0x14) addr:0x02181f5c
_ZN16ActorTypeUnkSEAT11GetInstanceEv kind:function(arm,size=0xc) addr:0x02181f70
_ZN16ActorTypeUnkSEAT6CreateEv kind:function(arm,size=0x24) addr:0x02181f7c
_ZN16ActorTypeUnkSEATC1Ev kind:function(arm,size=0x28) addr:0x02181fa0
_ZN12ActorUnkSEAT19func_ov098_02181fc8Ev kind:function(arm,size=0x128) addr:0x02181fc8
_ZN12ActorUnkSEAT19func_ov098_021820f0Ev kind:function(arm,size=0x20) addr:0x021820f0
_ZN12ActorUnkSEAT19func_ov098_02182110Ev kind:function(arm,size=0x1c) addr:0x02182110
_ZN12ActorUnkSEAT19func_ov098_0218212cEv kind:function(arm,size=0x14) addr:0x0218212c
_ZN12ActorUnkSEAT19func_ov098_02182140Ev kind:function(arm,size=0x20) addr:0x02182140
_ZN12ActorUnkSEAT19func_ov098_02182160Ev kind:function(arm,size=0x20) addr:0x02182160
_ZN12ActorUnkSEAT19func_ov098_02182180Ev kind:function(arm,size=0x28) addr:0x02182180
_ZN16ActorTypeUnkSEATD1Ev kind:function(arm,size=0x14) addr:0x021821a8
data_ov098_021821bc kind:data(any) addr:0x021821bc
__sinit_ov098_021821d0 kind:function(arm,size=0x50) addr:0x021821d0
__sinit_ov098_02182220 kind:function(arm,size=0x50) addr:0x02182220
__sinit_ov098_02182270 kind:function(arm,size=0x50) addr:0x02182270
__sinit_ov098_021822c0 kind:function(arm,size=0x50) addr:0x021822c0
__sinit_ov098_02182310 kind:function(arm,size=0x50) addr:0x02182310
.p__sinit_ov098_021821d0 kind:data(word) addr:0x02182360
.p__sinit_ov098_02182220 kind:data(word) addr:0x02182364
.p__sinit_ov098_02182270 kind:data(word) addr:0x02182368
.p__sinit_ov098_021822c0 kind:data(word) addr:0x0218236c
.p__sinit_ov098_02182310 kind:data(word) addr:0x02182370
data_ov098_02182388 kind:data(any) addr:0x02182388
_ZTV19data_ov098_0218238c kind:data(any) addr:0x0218238c
data_ov098_021823b0 kind:data(any) addr:0x021823b0
data_ov098_021823c8 kind:data(any) addr:0x021823c8
data_ov098_021823e8 kind:data(any) addr:0x021823e8
data_ov098_02182430 kind:data(any) addr:0x02182430
_ZTV19data_ov098_02182470 kind:data(any) addr:0x02182470
_ZTV19data_ov098_021824d0 kind:data(any) addr:0x021824d0
data_ov098_021824f4 kind:data(any) addr:0x021824f4
data_ov098_0218250c kind:data(any) addr:0x0218250c
_ZTV19data_ov098_02182524 kind:data(any) addr:0x02182524
_ZTV19data_ov098_02182584 kind:data(any) addr:0x02182584
data_ov098_021825a8 kind:data(any) addr:0x021825a8
data_ov098_021825c0 kind:data(any) addr:0x021825c0
_ZTV19data_ov098_021825d8 kind:data(any) addr:0x021825d8
_ZTV19data_ov098_02182638 kind:data(any) addr:0x02182638
data_ov098_0218265c kind:data(any) addr:0x0218265c
data_ov098_02182674 kind:data(any) addr:0x02182674
_ZTV19data_ov098_0218268c kind:data(any) addr:0x0218268c
_ZTV19data_ov098_021826ec kind:data(any) addr:0x021826ec
_ZTV19data_ov098_02182710 kind:data(any) addr:0x02182710
data_ov098_02182780 kind:bss addr:0x02182780
data_ov098_02182784 kind:bss addr:0x02182784
data_ov098_02182790 kind:bss addr:0x02182790
data_ov098_02182868 kind:bss addr:0x02182868
data_ov098_0218286c kind:bss addr:0x0218286c
data_ov098_02182878 kind:bss addr:0x02182878
data_ov098_02182950 kind:bss addr:0x02182950
data_ov098_02182954 kind:bss addr:0x02182954
data_ov098_02182960 kind:bss addr:0x02182960
data_ov098_02182a38 kind:bss addr:0x02182a38
data_ov098_02182a3c kind:bss addr:0x02182a3c
data_ov098_02182a48 kind:bss addr:0x02182a48
data_ov098_02182b20 kind:bss addr:0x02182b20
data_ov098_02182b24 kind:bss addr:0x02182b24
data_ov098_02182b30 kind:bss addr:0x02182b30
data_ov098_02182b6c kind:bss addr:0x02182b6c
