_ZN16ActorTypeUnkSTLF11GetInstanceEv kind:function(arm,size=0xc) addr:0x02125280
_ZN16ActorTypeUnkSTLF6CreateEv kind:function(arm,size=0x24) addr:0x0212528c
_ZN16ActorTypeUnkSTLFC1Ev kind:function(arm,size=0x50) addr:0x021252b0
_ZN16ActorTypeUnkSTLF19func_ov043_02125300Ev kind:function(arm,size=0x1f4) addr:0x02125300
_ZN16ActorTypeUnkSTLF19func_ov043_021254f4Ev kind:function(arm,size=0x14) addr:0x021254f4
_ZN16ActorTypeUnkSTLF19func_ov043_02125508Ev kind:function(arm,size=0x60) addr:0x02125508
_ZN16ActorTypeUnkSTLF19func_ov043_02125568Ev kind:function(arm,size=0x68) addr:0x02125568
_ZN16ActorTypeUnkSTLF19func_ov043_021255d0Ev kind:function(arm,size=0xf0) addr:0x021255d0
_ZN16ActorTypeUnkSTLF19func_ov043_021256c0Ev kind:function(arm,size=0x70) addr:0x021256c0
_ZN16ActorTypeUnkSTLF19func_ov043_02125730Ev kind:function(arm,size=0x24) addr:0x02125730
_ZN16ActorTypeUnkSTLF19func_ov043_02125754Ev kind:function(arm,size=0x94) addr:0x02125754
_ZN16ActorTypeUnkSTLF19func_ov043_021257e8Ev kind:function(arm,size=0x2c8) addr:0x021257e8
_ZN16ActorTypeUnkSTLF19func_ov043_02125ab0Ev kind:function(arm,size=0xb8) addr:0x02125ab0
_ZN16ActorTypeUnkSTLF19func_ov043_02125b68Ev kind:function(arm,size=0x80) addr:0x02125b68
_ZN16ActorTypeUnkSTLF19func_ov043_02125be8Ev kind:function(arm,size=0x68) addr:0x02125be8
_ZN16ActorTypeUnkSTLF19func_ov043_02125c50Ev kind:function(arm,size=0xc0) addr:0x02125c50
_ZN16ActorTypeUnkSTLF19func_ov043_02125d10Ev kind:function(arm,size=0x54) addr:0x02125d10
_ZN16ActorTypeUnkSTLF19func_ov043_02125d64Ev kind:function(arm,size=0x80) addr:0x02125d64
_ZN16ActorTypeUnkSTLF19func_ov043_02125de4Ev kind:function(arm,size=0x124) addr:0x02125de4
_ZN16ActorTypeUnkSTLF19func_ov043_02125f08Ev kind:function(arm,size=0xd8) addr:0x02125f08
_ZN16ActorTypeUnkSTLF19func_ov043_02125fe0Ev kind:function(arm,size=0x104) addr:0x02125fe0
_ZN16ActorTypeUnkSTLF19func_ov043_021260e4Ev kind:function(arm,size=0x10) addr:0x021260e4
_ZN16ActorTypeUnkSTLF19func_ov043_021260f4Ev kind:function(arm,size=0x8c) addr:0x021260f4
_ZN16ActorTypeUnkSTLF19func_ov043_02126180Ev kind:function(arm,size=0xcc) addr:0x02126180
_ZN16ActorTypeUnkSTLF19func_ov043_0212624cEv kind:function(arm,size=0xb8) addr:0x0212624c
_ZN16ActorTypeUnkSTLF19func_ov043_02126304Ev kind:function(arm,size=0x80) addr:0x02126304
_ZN16ActorTypeUnkSTLF19func_ov043_02126384Ev kind:function(arm,size=0x8c) addr:0x02126384
_ZN16ActorTypeUnkSTLF19func_ov043_02126410Ev kind:function(arm,size=0x7c) addr:0x02126410
_ZN16ActorTypeUnkSTLF19func_ov043_0212648cEv kind:function(arm,size=0x84) addr:0x0212648c
_ZN16ActorTypeUnkSTLF19func_ov043_02126510Ev kind:function(arm,size=0xd8) addr:0x02126510
_ZN16ActorTypeUnkSTLF19func_ov043_021265e8Ev kind:function(arm,size=0x120) addr:0x021265e8
_ZN16ActorTypeUnkSTLF19func_ov043_02126708Ev kind:function(arm,size=0x214) addr:0x02126708
_ZN16ActorTypeUnkSTLF19func_ov043_0212691cEv kind:function(arm,size=0x98) addr:0x0212691c
_ZN16ActorTypeUnkSTLF19func_ov043_021269b4Ev kind:function(arm,size=0xf8) addr:0x021269b4
_ZN16ActorTypeUnkSTLF19func_ov043_02126aacEv kind:function(arm,size=0x9c) addr:0x02126aac
_ZN16ActorTypeUnkSTLF19func_ov043_02126b48Ev kind:function(arm,size=0x168) addr:0x02126b48
_ZN16ActorTypeUnkSTLF19func_ov043_02126cb0Ev kind:function(arm,size=0x7c) addr:0x02126cb0
_ZN16ActorTypeUnkSTLF19func_ov043_02126d2cEv kind:function(arm,size=0x158) addr:0x02126d2c
_ZN16ActorTypeUnkSTLF19func_ov043_02126e84Ev kind:function(arm,size=0xfc) addr:0x02126e84
_ZN16ActorTypeUnkSTLF19func_ov043_02126f80Ev kind:function(arm,size=0x48) addr:0x02126f80
_ZN16ActorTypeUnkSTLF19func_ov043_02126fc8Ev kind:function(arm,size=0x18) addr:0x02126fc8
_ZN16ActorTypeUnkSTLF19func_ov043_02126fe0Ev kind:function(arm,size=0x60) addr:0x02126fe0
_ZN16ActorTypeUnkSTLF19func_ov043_02127040Ev kind:function(arm,size=0xdc) addr:0x02127040
_ZN16ActorTypeUnkSTLF19func_ov043_0212711cEv kind:function(arm,size=0x84) addr:0x0212711c
_ZN16ActorTypeUnkSTLF19func_ov043_021271a0Ev kind:function(arm,size=0x18) addr:0x021271a0
_ZN16ActorTypeUnkSTLF19func_ov043_021271b8Ev kind:function(arm,size=0x88) addr:0x021271b8
_ZN16ActorTypeUnkSTLF19func_ov043_02127240Ev kind:function(arm,size=0x134) addr:0x02127240
_ZN16ActorTypeUnkSTLF19func_ov043_02127374Ev kind:function(arm,size=0x14c) addr:0x02127374
_ZN16ActorTypeUnkSTLF19func_ov043_021274c0Ev kind:function(arm,size=0x128) addr:0x021274c0
_ZN16ActorTypeUnkSTLF19func_ov043_021275e8Ev kind:function(arm,size=0x94) addr:0x021275e8
_ZN16ActorTypeUnkSTLF19func_ov043_0212767cEv kind:function(arm,size=0xe0) addr:0x0212767c
_ZN16ActorTypeUnkSTLF19func_ov043_0212775cEv kind:function(arm,size=0x24) addr:0x0212775c
_ZN16ActorTypeUnkSTLF19func_ov043_02127780Ev kind:function(arm,size=0x74) addr:0x02127780
_ZN16ActorTypeUnkSTLF19func_ov043_021277f4Ev kind:function(arm,size=0x9c) addr:0x021277f4
_ZN16ActorTypeUnkSTLF19func_ov043_02127890Ev kind:function(arm,size=0x78) addr:0x02127890
_ZN16ActorTypeUnkSTLF19func_ov043_02127908Ev kind:function(arm,size=0x190) addr:0x02127908
_ZN16ActorTypeUnkSTLF19func_ov043_02127a98Ev kind:function(arm,size=0x18) addr:0x02127a98
_ZN16ActorTypeUnkSTLF19func_ov043_02127ab0Ev kind:function(arm,size=0x3b0) addr:0x02127ab0
_ZN16ActorTypeUnkSTLF19func_ov043_02127e60Ev kind:function(arm,size=0x68) addr:0x02127e60
_ZN16ActorTypeUnkSTLF19func_ov043_02127ec8Ev kind:function(arm,size=0x28) addr:0x02127ec8
_ZN16ActorTypeUnkSTLF19func_ov043_02127ef0Ev kind:function(arm,size=0xe8) addr:0x02127ef0
_ZN16ActorTypeUnkSTLF19func_ov043_02127fd8Ev kind:function(arm,size=0x18) addr:0x02127fd8
_ZN16ActorTypeUnkSTLF19func_ov043_02127ff0Ev kind:function(arm,size=0x30) addr:0x02127ff0
_ZN16ActorTypeUnkSTLF19func_ov043_02128020Ev kind:function(arm,size=0x94) addr:0x02128020
_ZN16ActorTypeUnkSTLF19func_ov043_021280b4Ev kind:function(arm,size=0x1ac) addr:0x021280b4
_ZN16ActorTypeUnkSTLF19func_ov043_02128260Ev kind:function(arm,size=0x1f8) addr:0x02128260
_ZN16ActorTypeUnkSTLF19func_ov043_02128458Ev kind:function(arm,size=0x24) addr:0x02128458
_ZN16ActorTypeUnkSTLF19func_ov043_0212847cEv kind:function(arm,size=0x2c) addr:0x0212847c
_ZN16ActorTypeUnkSTLF19func_ov043_021284a8Ev kind:function(arm,size=0x1c) addr:0x021284a8
_ZN16ActorTypeUnkSTLFD1Ev kind:function(arm,size=0x14) addr:0x021284c4
_ZN16ActorTypeUnkSTFH11GetInstanceEv kind:function(arm,size=0xc) addr:0x021284d8
_ZN16ActorTypeUnkSTFH6CreateEv kind:function(arm,size=0x24) addr:0x021284e4
_ZN16ActorTypeUnkSTFHC1Ev kind:function(arm,size=0x64) addr:0x02128508
_ZN16ActorTypeUnkSTFH19func_ov043_0212856cEv kind:function(arm,size=0x34) addr:0x0212856c
_ZN16ActorTypeUnkSTFH19func_ov043_021285a0Ev kind:function(arm,size=0x3c) addr:0x021285a0
_ZN16ActorTypeUnkSTFH19func_ov043_021285dcEv kind:function(arm,size=0x20) addr:0x021285dc
_ZN16ActorTypeUnkSTFH19func_ov043_021285fcEv kind:function(arm,size=0x24) addr:0x021285fc
_ZN16ActorTypeUnkSTFH19func_ov043_02128620Ev kind:function(arm,size=0x260) addr:0x02128620
_ZN16ActorTypeUnkSTFH19func_ov043_02128880Ev kind:function(arm,size=0x14) addr:0x02128880
_ZN16ActorTypeUnkSTFH19func_ov043_02128894Ev kind:function(arm,size=0x14) addr:0x02128894
_ZN16ActorTypeUnkSTFH19func_ov043_021288a8Ev kind:function(arm,size=0x50) addr:0x021288a8
_ZN16ActorTypeUnkSTFH19func_ov043_021288f8Ev kind:function(arm,size=0x30) addr:0x021288f8
_ZN16ActorTypeUnkSTFH19func_ov043_02128928Ev kind:function(arm,size=0x94) addr:0x02128928
_ZN16ActorTypeUnkSTFH19func_ov043_021289bcEv kind:function(arm,size=0x84) addr:0x021289bc
_ZN16ActorTypeUnkSTFH19func_ov043_02128a40Ev kind:function(arm,size=0x6c) addr:0x02128a40
_ZN16ActorTypeUnkSTFH19func_ov043_02128aacEv kind:function(arm,size=0x28) addr:0x02128aac
_ZN16ActorTypeUnkSTFH19func_ov043_02128ad4Ev kind:function(arm,size=0x84) addr:0x02128ad4
_ZN16ActorTypeUnkSTFH19func_ov043_02128b58Ev kind:function(arm,size=0xd4) addr:0x02128b58
_ZN16ActorTypeUnkSTFH19func_ov043_02128c2cEv kind:function(arm,size=0xec) addr:0x02128c2c
_ZN16ActorTypeUnkSTFH19func_ov043_02128d18Ev kind:function(arm,size=0x100) addr:0x02128d18
_ZN16ActorTypeUnkSTFH19func_ov043_02128e18Ev kind:function(arm,size=0x4) addr:0x02128e18
_ZN16ActorTypeUnkSTFH19func_ov043_02128e1cEv kind:function(arm,size=0x4c) addr:0x02128e1c
_ZN16ActorTypeUnkSTFH19func_ov043_02128e68Ev kind:function(arm,size=0x4) addr:0x02128e68
_ZN16ActorTypeUnkSTFH19func_ov043_02128e6cEv kind:function(arm,size=0x44) addr:0x02128e6c
_ZN16ActorTypeUnkSTFH19func_ov043_02128eb0Ev kind:function(arm,size=0x94) addr:0x02128eb0
_ZN16ActorTypeUnkSTFH19func_ov043_02128f44Ev kind:function(arm,size=0x98) addr:0x02128f44
_ZN16ActorTypeUnkSTFH19func_ov043_02128fdcEv kind:function(arm,size=0x8c) addr:0x02128fdc
_ZN16ActorTypeUnkSTFH19func_ov043_02129068Ev kind:function(arm,size=0x19c) addr:0x02129068
_ZN16ActorTypeUnkSTFH19func_ov043_02129204Ev kind:function(arm,size=0x7c) addr:0x02129204
_ZN16ActorTypeUnkSTFH19func_ov043_02129280Ev kind:function(arm,size=0xd4) addr:0x02129280
_ZN16ActorTypeUnkSTFH19func_ov043_02129354Ev kind:function(arm,size=0xac) addr:0x02129354
_ZN16ActorTypeUnkSTFH19func_ov043_02129400Ev kind:function(arm,size=0x138) addr:0x02129400
_ZN16ActorTypeUnkSTFH19func_ov043_02129538Ev kind:function(arm,size=0x90) addr:0x02129538
_ZN16ActorTypeUnkSTFH19func_ov043_021295c8Ev kind:function(arm,size=0xb4) addr:0x021295c8
_ZN16ActorTypeUnkSTFH19func_ov043_0212967cEv kind:function(arm,size=0xc0) addr:0x0212967c
_ZN16ActorTypeUnkSTFH19func_ov043_0212973cEv kind:function(arm,size=0x98) addr:0x0212973c
_ZN16ActorTypeUnkSTFH19func_ov043_021297d4Ev kind:function(arm,size=0x24) addr:0x021297d4
_ZN16ActorTypeUnkSTFH19func_ov043_021297f8Ev kind:function(arm,size=0x8c) addr:0x021297f8
_ZN16ActorTypeUnkSTFH19func_ov043_02129884Ev kind:function(arm,size=0x9c) addr:0x02129884
_ZN16ActorTypeUnkSTFH19func_ov043_02129920Ev kind:function(arm,size=0x148) addr:0x02129920
_ZN16ActorTypeUnkSTFH19func_ov043_02129a68Ev kind:function(arm,size=0xac) addr:0x02129a68
_ZN16ActorTypeUnkSTFH19func_ov043_02129b14Ev kind:function(arm,size=0x24) addr:0x02129b14
_ZN16ActorTypeUnkSTFH19func_ov043_02129b38Ev kind:function(arm,size=0x60) addr:0x02129b38
_ZN16ActorTypeUnkSTFH19func_ov043_02129b98Ev kind:function(arm,size=0x2c) addr:0x02129b98
_ZN16ActorTypeUnkSTFH19func_ov043_02129bc4Ev kind:function(arm,size=0xd8) addr:0x02129bc4
_ZN16ActorTypeUnkSTFH19func_ov043_02129c9cEv kind:function(arm,size=0x10) addr:0x02129c9c
_ZN16ActorTypeUnkSTFH19func_ov043_02129cacEv kind:function(arm,size=0x64) addr:0x02129cac
_ZN16ActorTypeUnkSTFH19func_ov043_02129d10Ev kind:function(arm,size=0x1fc) addr:0x02129d10
_ZN16ActorTypeUnkSTFH19func_ov043_02129f0cEv kind:function(arm,size=0x44) addr:0x02129f0c
_ZN16ActorTypeUnkSTFH19func_ov043_02129f50Ev kind:function(arm,size=0xa8) addr:0x02129f50
_ZN16ActorTypeUnkSTFH19func_ov043_02129ff8Ev kind:function(arm,size=0x24) addr:0x02129ff8
_ZN16ActorTypeUnkSTFH19func_ov043_0212a01cEv kind:function(arm,size=0x10) addr:0x0212a01c
_ZN16ActorTypeUnkSTFH19func_ov043_0212a02cEv kind:function(arm,size=0x8) addr:0x0212a02c
_ZN16ActorTypeUnkSTFH19func_ov043_0212a034Ev kind:function(arm,size=0x1c) addr:0x0212a034
_ZN16ActorTypeUnkSTFH19func_ov043_0212a050Ev kind:function(arm,size=0x1c) addr:0x0212a050
_ZN16ActorTypeUnkSTFH19func_ov043_0212a06cEv kind:function(arm,size=0x40) addr:0x0212a06c
_ZN16ActorTypeUnkSTFH19func_ov043_0212a0acEv kind:function(arm,size=0x48) addr:0x0212a0ac
_ZN16ActorTypeUnkSTFHD1Ev kind:function(arm,size=0x14) addr:0x0212a0f4
_ZN16ActorTypeUnkSTFB11GetInstanceEv kind:function(arm,size=0xc) addr:0x0212a108
_ZN16ActorTypeUnkSTFB6CreateEv kind:function(arm,size=0x24) addr:0x0212a114
_ZN16ActorTypeUnkSTFBC1Ev kind:function(arm,size=0x50) addr:0x0212a138
_ZN16ActorTypeUnkSTFB19func_ov043_0212a188Ev kind:function(arm,size=0x48) addr:0x0212a188
_ZN16ActorTypeUnkSTFB19func_ov043_0212a1d0Ev kind:function(arm,size=0x14) addr:0x0212a1d0
_ZN16ActorTypeUnkSTFB19func_ov043_0212a1e4Ev kind:function(arm,size=0x10c) addr:0x0212a1e4
_ZN16ActorTypeUnkSTFB19func_ov043_0212a2f0Ev kind:function(arm,size=0x14) addr:0x0212a2f0
_ZN16ActorTypeUnkSTFB19func_ov043_0212a304Ev kind:function(arm,size=0x3c) addr:0x0212a304
_ZN16ActorTypeUnkSTFB19func_ov043_0212a340Ev kind:function(arm,size=0x1fc) addr:0x0212a340
_ZN16ActorTypeUnkSTFB19func_ov043_0212a53cEv kind:function(arm,size=0x7c) addr:0x0212a53c
_ZN16ActorTypeUnkSTFB19func_ov043_0212a5b8Ev kind:function(arm,size=0xf0) addr:0x0212a5b8
_ZN16ActorTypeUnkSTFB19func_ov043_0212a6a8Ev kind:function(arm,size=0x6c) addr:0x0212a6a8
_ZN16ActorTypeUnkSTFB19func_ov043_0212a714Ev kind:function(arm,size=0x68) addr:0x0212a714
_ZN16ActorTypeUnkSTFB19func_ov043_0212a77cEv kind:function(arm,size=0x1c) addr:0x0212a77c
_ZN16ActorTypeUnkSTFB19func_ov043_0212a798Ev kind:function(arm,size=0x30) addr:0x0212a798
_ZN16ActorTypeUnkSTFB19func_ov043_0212a7c8Ev kind:function(arm,size=0x38) addr:0x0212a7c8
_ZN16ActorTypeUnkSTFBD1Ev kind:function(arm,size=0x14) addr:0x0212a800
func_ov043_0212a814 kind:function(thumb,size=0x24) addr:0x0212a814
func_ov043_0212a838 kind:function(thumb,size=0x38) addr:0x0212a838
func_ov043_0212a870 kind:function(thumb,size=0x28) addr:0x0212a870
_ZN16ActorTypeUnkSHDL11GetInstanceEv kind:function(thumb,size=0x8) addr:0x0212a898
_ZN16ActorTypeUnkSHDL6CreateEv kind:function(thumb,size=0x1c) addr:0x0212a8a0
_ZN16ActorTypeUnkSHDLC1Ev kind:function(thumb,size=0x48) addr:0x0212a8bc
_ZN16ActorTypeUnkSHDL19func_ov043_0212a904Ev kind:function(thumb,size=0x250) addr:0x0212a904
_ZN16ActorTypeUnkSHDL19func_ov043_0212ab54Ev kind:function(thumb,size=0x32c) addr:0x0212ab54
_ZN16ActorTypeUnkSHDL19func_ov043_0212ae80Ev kind:function(thumb,size=0x170) addr:0x0212ae80
_ZN16ActorTypeUnkSHDL19func_ov043_0212aff0Ev kind:function(thumb,size=0x23c) addr:0x0212aff0
_ZN16ActorTypeUnkSHDL19func_ov043_0212b22cEv kind:function(thumb,size=0x44) addr:0x0212b22c
_ZN16ActorTypeUnkSHDL19func_ov043_0212b270Ev kind:function(thumb,size=0x164) addr:0x0212b270
_ZN16ActorTypeUnkSHDL19func_ov043_0212b3d4Ev kind:function(thumb,size=0x7c) addr:0x0212b3d4
_ZN16ActorTypeUnkSHDL19func_ov043_0212b450Ev kind:function(thumb,size=0x80) addr:0x0212b450
_ZN16ActorTypeUnkSHDL19func_ov043_0212b4d0Ev kind:function(thumb,size=0x14) addr:0x0212b4d0
_ZN16ActorTypeUnkSHDL19func_ov043_0212b4e4Ev kind:function(thumb,size=0xb0) addr:0x0212b4e4
_ZN16ActorTypeUnkSHDL19func_ov043_0212b594Ev kind:function(thumb,size=0x2ec) addr:0x0212b594
_ZN16ActorTypeUnkSHDL19func_ov043_0212b880Ev kind:function(thumb,size=0x28) addr:0x0212b880
_ZN16ActorTypeUnkSHDL19func_ov043_0212b8a8Ev kind:function(thumb,size=0x10) addr:0x0212b8a8
_ZN16ActorTypeUnkSHDL19func_ov043_0212b8b8Ev kind:function(thumb,size=0x9c) addr:0x0212b8b8
_ZN16ActorTypeUnkSHDL19func_ov043_0212b954Ev kind:function(thumb,size=0x48) addr:0x0212b954
_ZN16ActorTypeUnkSHDL19func_ov043_0212b99cEv kind:function(thumb,size=0x198) addr:0x0212b99c
_ZN16ActorTypeUnkSHDL19func_ov043_0212bb34Ev kind:function(thumb,size=0x5c) addr:0x0212bb34
_ZN16ActorTypeUnkSHDL19func_ov043_0212bb90Ev kind:function(thumb,size=0x20) addr:0x0212bb90
_ZN16ActorTypeUnkSHDL19func_ov043_0212bbb0Ev kind:function(thumb,size=0x50) addr:0x0212bbb0
_ZN16ActorTypeUnkSHDL19func_ov043_0212bc00Ev kind:function(thumb,size=0xb8) addr:0x0212bc00
_ZN16ActorTypeUnkSHDL19func_ov043_0212bcb8Ev kind:function(thumb,size=0x1b0) addr:0x0212bcb8
_ZN16ActorTypeUnkSHDL19func_ov043_0212be68Ev kind:function(thumb,size=0x68) addr:0x0212be68
_ZN16ActorTypeUnkSHDL19func_ov043_0212bed0Ev kind:function(thumb,size=0x16c) addr:0x0212bed0
_ZN16ActorTypeUnkSHDL19func_ov043_0212c03cEv kind:function(thumb,size=0x36) addr:0x0212c03c
_ZN16ActorTypeUnkSHDL19func_ov043_0212c074Ev kind:function(thumb,size=0x4c) addr:0x0212c074
_ZN16ActorTypeUnkSHDL19func_ov043_0212c0c0Ev kind:function(thumb,size=0xfc) addr:0x0212c0c0
_ZN16ActorTypeUnkSHDL19func_ov043_0212c1bcEv kind:function(thumb,size=0x2c) addr:0x0212c1bc
_ZN16ActorTypeUnkSHDL19func_ov043_0212c1e8Ev kind:function(thumb,size=0x7c) addr:0x0212c1e8
_ZN16ActorTypeUnkSHDL19func_ov043_0212c264Ev kind:function(thumb,size=0xd8) addr:0x0212c264
_ZN16ActorTypeUnkSHDL19func_ov043_0212c33cEv kind:function(thumb,size=0xc) addr:0x0212c33c
_ZN16ActorTypeUnkSHDL19func_ov043_0212c348Ev kind:function(thumb,size=0x18) addr:0x0212c348
_ZN16ActorTypeUnkSHDL19func_ov043_0212c360Ev kind:function(thumb,size=0x7c) addr:0x0212c360
_ZN16ActorTypeUnkSHDL19func_ov043_0212c3dcEv kind:function(thumb,size=0x60) addr:0x0212c3dc
_ZN16ActorTypeUnkSHDL19func_ov043_0212c43cEv kind:function(thumb,size=0xa0) addr:0x0212c43c
_ZN16ActorTypeUnkSHDL19func_ov043_0212c4dcEv kind:function(thumb,size=0x30) addr:0x0212c4dc
_ZN16ActorTypeUnkSHDL19func_ov043_0212c50cEv kind:function(thumb,size=0x4c) addr:0x0212c50c
_ZN16ActorTypeUnkSHDL19func_ov043_0212c558Ev kind:function(thumb,size=0xcc) addr:0x0212c558
_ZN16ActorTypeUnkSHDL19func_ov043_0212c624Ev kind:function(thumb,size=0x88) addr:0x0212c624
_ZN16ActorTypeUnkSHDL19func_ov043_0212c6acEv kind:function(thumb,size=0x38) addr:0x0212c6ac
_ZN16ActorTypeUnkSHDL19func_ov043_0212c6e4Ev kind:function(thumb,size=0x60) addr:0x0212c6e4
_ZN16ActorTypeUnkSHDL19func_ov043_0212c744Ev kind:function(thumb,size=0x38) addr:0x0212c744
_ZN16ActorTypeUnkSHDL19func_ov043_0212c77cEv kind:function(thumb,size=0x298) addr:0x0212c77c
_ZN16ActorTypeUnkSHDL19func_ov043_0212ca14Ev kind:function(thumb,size=0x45c) addr:0x0212ca14
_ZN16ActorTypeUnkSHDL19func_ov043_0212ce70Ev kind:function(thumb,size=0x348) addr:0x0212ce70
_ZN16ActorTypeUnkSHDL19func_ov043_0212d1b8Ev kind:function(thumb,size=0xf8) addr:0x0212d1b8
_ZN16ActorTypeUnkSHDL19func_ov043_0212d2b0Ev kind:function(thumb,size=0x84) addr:0x0212d2b0
_ZN16ActorTypeUnkSHDL19func_ov043_0212d334Ev kind:function(thumb,size=0xb4) addr:0x0212d334
_ZN16ActorTypeUnkSHDL19func_ov043_0212d3e8Ev kind:function(thumb,size=0x9c) addr:0x0212d3e8
_ZN16ActorTypeUnkSHDL19func_ov043_0212d484Ev kind:function(thumb,size=0x5c) addr:0x0212d484
_ZN16ActorTypeUnkSHDL19func_ov043_0212d4e0Ev kind:function(thumb,size=0x7c) addr:0x0212d4e0
_ZN16ActorTypeUnkSHDL19func_ov043_0212d55cEv kind:function(thumb,size=0xa8) addr:0x0212d55c
_ZN16ActorTypeUnkSHDL19func_ov043_0212d604Ev kind:function(thumb,size=0x40) addr:0x0212d604
_ZN16ActorTypeUnkSHDL19func_ov043_0212d644Ev kind:function(thumb,size=0x44) addr:0x0212d644
_ZN16ActorTypeUnkSHDL19func_ov043_0212d688Ev kind:function(thumb,size=0x80) addr:0x0212d688
_ZN16ActorTypeUnkSHDL19func_ov043_0212d708Ev kind:function(thumb,size=0x30) addr:0x0212d708
_ZN16ActorTypeUnkSHDL19func_ov043_0212d738Ev kind:function(thumb,size=0x2a) addr:0x0212d738
_ZN16ActorTypeUnkSHDL19func_ov043_0212d764Ev kind:function(thumb,size=0x118) addr:0x0212d764
_ZN16ActorTypeUnkSHDL19func_ov043_0212d87cEv kind:function(thumb,size=0x2b8) addr:0x0212d87c
_ZN16ActorTypeUnkSHDL19func_ov043_0212db34Ev kind:function(thumb,size=0x50) addr:0x0212db34
_ZN16ActorTypeUnkSHDL19func_ov043_0212db84Ev kind:function(thumb,size=0x78) addr:0x0212db84
_ZN16ActorTypeUnkSHDL19func_ov043_0212dbfcEv kind:function(thumb,size=0x80) addr:0x0212dbfc
_ZN16ActorTypeUnkSHDL19func_ov043_0212dc7cEv kind:function(thumb,size=0x130) addr:0x0212dc7c
_ZN16ActorTypeUnkSHDL19func_ov043_0212ddacEv kind:function(thumb,size=0x3c) addr:0x0212ddac
_ZN16ActorTypeUnkSHDL19func_ov043_0212dde8Ev kind:function(thumb,size=0x90) addr:0x0212dde8
_ZN16ActorTypeUnkSHDL19func_ov043_0212de78Ev kind:function(thumb,size=0x7c) addr:0x0212de78
_ZN16ActorTypeUnkSHDL19func_ov043_0212def4Ev kind:function(thumb,size=0x3c) addr:0x0212def4
_ZN16ActorTypeUnkSHDL19func_ov043_0212df30Ev kind:function(thumb,size=0x7c) addr:0x0212df30
_ZN16ActorTypeUnkSHDL19func_ov043_0212dfacEv kind:function(thumb,size=0xd8) addr:0x0212dfac
_ZN16ActorTypeUnkSHDL19func_ov043_0212e084Ev kind:function(thumb,size=0x114) addr:0x0212e084
_ZN16ActorTypeUnkSHDL19func_ov043_0212e198Ev kind:function(thumb,size=0xf0) addr:0x0212e198
_ZN16ActorTypeUnkSHDL19func_ov043_0212e288Ev kind:function(thumb,size=0x12c) addr:0x0212e288
_ZN16ActorTypeUnkSHDL19func_ov043_0212e3b4Ev kind:function(thumb,size=0xf0) addr:0x0212e3b4
_ZN16ActorTypeUnkSHDL19func_ov043_0212e4a4Ev kind:function(thumb,size=0x6c) addr:0x0212e4a4
_ZN16ActorTypeUnkSHDL19func_ov043_0212e510Ev kind:function(thumb,size=0x8c) addr:0x0212e510
_ZN16ActorTypeUnkSHDL19func_ov043_0212e59cEv kind:function(thumb,size=0x98) addr:0x0212e59c
_ZN16ActorTypeUnkSHDL19func_ov043_0212e634Ev kind:function(thumb,size=0x48) addr:0x0212e634
_ZN16ActorTypeUnkSHDL19func_ov043_0212e67cEv kind:function(thumb,size=0xc0) addr:0x0212e67c
_ZN16ActorTypeUnkSHDL19func_ov043_0212e73cEv kind:function(thumb,size=0x98) addr:0x0212e73c
_ZN16ActorTypeUnkSHDLD1Ev kind:function(arm,size=0x20) addr:0x0212e7d4
data_ov043_0212e7f4 kind:data(any) addr:0x0212e7f4
data_ov043_0212e7f8 kind:data(any) addr:0x0212e7f8
data_ov043_0212e808 kind:data(any) addr:0x0212e808
data_ov043_0212e818 kind:data(any) addr:0x0212e818
data_ov043_0212e824 kind:data(any) addr:0x0212e824
data_ov043_0212e828 kind:data(any) addr:0x0212e828
data_ov043_0212e838 kind:data(any) addr:0x0212e838
data_ov043_0212e860 kind:data(any) addr:0x0212e860
data_ov043_0212e870 kind:data(any) addr:0x0212e870
data_ov043_0212e872 kind:data(any) addr:0x0212e872
data_ov043_0212e874 kind:data(any) addr:0x0212e874
data_ov043_0212e876 kind:data(any) addr:0x0212e876
data_ov043_0212e878 kind:data(any) addr:0x0212e878
data_ov043_0212e87a kind:data(any) addr:0x0212e87a
data_ov043_0212e87c kind:data(any) addr:0x0212e87c
data_ov043_0212e880 kind:data(any) addr:0x0212e880
data_ov043_0212e881 kind:data(any) addr:0x0212e881
__sinit_ov043_0212e938 kind:function(arm,size=0x100) addr:0x0212e938
__sinit_ov043_0212ea38 kind:function(arm,size=0xe0) addr:0x0212ea38
__sinit_ov043_0212eb18 kind:function(arm,size=0x50) addr:0x0212eb18
__sinit_ov043_0212eb68 kind:function(arm,size=0x78) addr:0x0212eb68
.p__sinit_ov043_0212e938 kind:data(word) addr:0x0212ebe0
.p__sinit_ov043_0212ea38 kind:data(word) addr:0x0212ebe4
.p__sinit_ov043_0212eb18 kind:data(word) addr:0x0212ebe8
.p__sinit_ov043_0212eb68 kind:data(word) addr:0x0212ebec
data_ov043_0212ec08 kind:data(any) addr:0x0212ec08
data_ov043_0212ec2c kind:data(any) addr:0x0212ec2c
data_ov043_0212ec78 kind:data(any) addr:0x0212ec78
data_ov043_0212ecd0 kind:data(any) addr:0x0212ecd0
data_ov043_0212ece8 kind:data(any) addr:0x0212ece8
data_ov043_0212ed00 kind:data(any) addr:0x0212ed00
data_ov043_0212ed18 kind:data(any) addr:0x0212ed18
data_ov043_0212ed30 kind:data(any) addr:0x0212ed30
data_ov043_0212ed48 kind:data(any) addr:0x0212ed48
data_ov043_0212ed60 kind:data(any) addr:0x0212ed60
data_ov043_0212ed6c kind:data(any) addr:0x0212ed6c ambiguous
data_ov043_0212ed78 kind:data(any) addr:0x0212ed78
data_ov043_0212ed88 kind:data(any) addr:0x0212ed88
data_ov043_0212ee68 kind:data(any) addr:0x0212ee68 ambiguous
data_ov043_0212ef48 kind:data(any) addr:0x0212ef48
data_ov043_0212ef58 kind:data(any) addr:0x0212ef58
data_ov043_0212ef78 kind:data(any) addr:0x0212ef78
data_ov043_0212ef9c kind:data(any) addr:0x0212ef9c
data_ov043_0212efe4 kind:data(any) addr:0x0212efe4
data_ov043_0212f030 kind:data(any) addr:0x0212f030
data_ov043_0212f088 kind:data(any) addr:0x0212f088
data_ov043_0212f0a0 kind:data(any) addr:0x0212f0a0
data_ov043_0212f0b8 kind:data(any) addr:0x0212f0b8
data_ov043_0212f0d0 kind:data(any) addr:0x0212f0d0
data_ov043_0212f130 kind:data(any) addr:0x0212f130
data_ov043_0212f140 kind:data(any) addr:0x0212f140
data_ov043_0212f17c kind:data(any) addr:0x0212f17c ambiguous
data_ov043_0212f268 kind:data(any) addr:0x0212f268
data_ov043_0212f270 kind:data(any) addr:0x0212f270
data_ov043_0212f278 kind:data(any) addr:0x0212f278
data_ov043_0212f298 kind:data(any) addr:0x0212f298
data_ov043_0212f2b4 kind:data(any) addr:0x0212f2b4
data_ov043_0212f2d8 kind:data(any) addr:0x0212f2d8
data_ov043_0212f32c kind:data(any) addr:0x0212f32c
data_ov043_0212f338 kind:data(any) addr:0x0212f338
data_ov043_0212f348 kind:data(any) addr:0x0212f348
data_ov043_0212f358 kind:data(any) addr:0x0212f358
data_ov043_0212f368 kind:data(any) addr:0x0212f368
data_ov043_0212f378 kind:data(any) addr:0x0212f378
data_ov043_0212f390 kind:data(any) addr:0x0212f390
data_ov043_0212f39c kind:data(any) addr:0x0212f39c
data_ov043_0212f3ac kind:data(any) addr:0x0212f3ac
data_ov043_0212f3d0 kind:data(any) addr:0x0212f3d0
data_ov043_0212f3f4 kind:data(any) addr:0x0212f3f4
data_ov043_0212f44c kind:data(any) addr:0x0212f44c
data_ov043_0212f5ac kind:data(any) addr:0x0212f5ac
data_ov043_0212f5c0 kind:data(any) addr:0x0212f5c0
data_ov043_0212f5c4 kind:data(any) addr:0x0212f5c4
data_ov043_0212f5c8 kind:data(any) addr:0x0212f5c8
data_ov043_0212f5cc kind:data(any) addr:0x0212f5cc
data_ov043_0212f980 kind:bss addr:0x0212f980
data_ov043_0212f98c kind:bss addr:0x0212f98c
data_ov043_0212f998 kind:bss addr:0x0212f998
data_ov043_0212fa70 kind:bss addr:0x0212fa70
data_ov043_0212fa74 kind:bss addr:0x0212fa74
data_ov043_0212fa80 kind:bss addr:0x0212fa80
data_ov043_0212fb58 kind:bss addr:0x0212fb58
data_ov043_0212fb5c kind:bss addr:0x0212fb5c
data_ov043_0212fb68 kind:bss addr:0x0212fb68
data_ov043_0212fbac kind:bss addr:0x0212fbac
data_ov043_0212fbb4 kind:bss addr:0x0212fbb4
data_ov043_0212fbc0 kind:bss addr:0x0212fbc0
data_ov043_0212fc00 kind:bss addr:0x0212fc00
data_ov043_0212fc40 kind:bss addr:0x0212fc40
