func_ov098_02182bc0 kind:function(arm,size=0x30) addr:0x02182bc0
func_ov098_02182bf0 kind:function(arm,size=0x68) addr:0x02182bf0
_ZN16ActorTypeUnkEFWV11GetInstanceEv kind:function(arm,size=0xc) addr:0x02182c58
_ZN16ActorTypeUnkEFWV6CreateEv kind:function(arm,size=0x24) addr:0x02182c64
_ZN16ActorTypeUnkEFWVC1Ev kind:function(arm,size=0x74) addr:0x02182c88
_ZN16ActorTypeUnkEFWV19func_ov098_02182cfcEv kind:function(arm,size=0x9c) addr:0x02182cfc
_ZN16ActorTypeUnkEFWV19func_ov098_02182d98Ev kind:function(arm,size=0x14) addr:0x02182d98
_ZN16ActorTypeUnkEFWV19func_ov098_02182dacEv kind:function(arm,size=0x14) addr:0x02182dac
_ZN16ActorTypeUnkEFWV19func_ov098_02182dc0Ev kind:function(arm,size=0x9c) addr:0x02182dc0
_ZN16ActorTypeUnkEFWV19func_ov098_02182e5cEv kind:function(arm,size=0x9c) addr:0x02182e5c
_ZN16ActorTypeUnkEFWV19func_ov098_02182ef8Ev kind:function(arm,size=0x50) addr:0x02182ef8
_ZN16ActorTypeUnkEFWV19func_ov098_02182f48Ev kind:function(arm,size=0x14) addr:0x02182f48
_ZN16ActorTypeUnkEFWV19func_ov098_02182f5cEv kind:function(arm,size=0x34) addr:0x02182f5c
_ZN16ActorTypeUnkEFWV19func_ov098_02182f90Ev kind:function(arm,size=0x1c) addr:0x02182f90
_ZN16ActorTypeUnkEFWV19func_ov098_02182facEv kind:function(arm,size=0x16c) addr:0x02182fac
_ZN16ActorTypeUnkEFWV19func_ov098_02183118Ev kind:function(arm,size=0x38) addr:0x02183118
_ZN16ActorTypeUnkEFWV19func_ov098_02183150Ev kind:function(arm,size=0x30) addr:0x02183150
_ZN16ActorTypeUnkEFWV19func_ov098_02183180Ev kind:function(arm,size=0x24) addr:0x02183180
_ZN16ActorTypeUnkEFWV19func_ov098_021831a4Ev kind:function(arm,size=0x10) addr:0x021831a4
_ZN16ActorTypeUnkEFWV19func_ov098_021831b4Ev kind:function(arm,size=0x8) addr:0x021831b4
_ZN16ActorTypeUnkEFWV19func_ov098_021831bcEv kind:function(arm,size=0x1c) addr:0x021831bc
_ZN16ActorTypeUnkEFWV19func_ov098_021831d8Ev kind:function(arm,size=0x1c) addr:0x021831d8
_ZN16ActorTypeUnkEFWVD1Ev kind:function(arm,size=0x14) addr:0x021831f4
_ZN16ActorTypeUnkEFWI11GetInstanceEv kind:function(arm,size=0xc) addr:0x02183208
_ZN16ActorTypeUnkEFWI6CreateEv kind:function(arm,size=0x24) addr:0x02183214
_ZN16ActorTypeUnkEFWIC1Ev kind:function(arm,size=0x60) addr:0x02183238
_ZN16ActorTypeUnkEFWI19func_ov098_02183298Ev kind:function(arm,size=0x20) addr:0x02183298
_ZN16ActorTypeUnkEFWI19func_ov098_021832b8Ev kind:function(arm,size=0x9c) addr:0x021832b8
_ZN16ActorTypeUnkEFWI19func_ov098_02183354Ev kind:function(arm,size=0x1c) addr:0x02183354
_ZN16ActorTypeUnkEFWI19func_ov098_02183370Ev kind:function(arm,size=0x30) addr:0x02183370
_ZN16ActorTypeUnkEFWI19func_ov098_021833a0Ev kind:function(arm,size=0x38) addr:0x021833a0
_ZN16ActorTypeUnkEFWID1Ev kind:function(arm,size=0x14) addr:0x021833d8
_ZN16ActorTypeUnkEFRP11GetInstanceEv kind:function(arm,size=0xc) addr:0x021833ec
_ZN16ActorTypeUnkEFRP6CreateEv kind:function(arm,size=0x24) addr:0x021833f8
_ZN16ActorTypeUnkEFRPC1Ev kind:function(arm,size=0x74) addr:0x0218341c
_ZN16ActorTypeUnkEFRP19func_ov098_02183490Ev kind:function(arm,size=0x90) addr:0x02183490
_ZN16ActorTypeUnkEFRP19func_ov098_02183520Ev kind:function(arm,size=0x90) addr:0x02183520
_ZN16ActorTypeUnkEFRP19func_ov098_021835b0Ev kind:function(arm,size=0x9c) addr:0x021835b0
_ZN16ActorTypeUnkEFRP19func_ov098_0218364cEv kind:function(arm,size=0x50) addr:0x0218364c
_ZN16ActorTypeUnkEFRP19func_ov098_0218369cEv kind:function(arm,size=0x14) addr:0x0218369c
_ZN16ActorTypeUnkEFRP19func_ov098_021836b0Ev kind:function(arm,size=0x58) addr:0x021836b0
_ZN16ActorTypeUnkEFRP19func_ov098_02183708Ev kind:function(arm,size=0x1c) addr:0x02183708
_ZN16ActorTypeUnkEFRP19func_ov098_02183724Ev kind:function(arm,size=0x16c) addr:0x02183724
_ZN16ActorTypeUnkEFRP19func_ov098_02183890Ev kind:function(arm,size=0x38) addr:0x02183890
_ZN16ActorTypeUnkEFRP19func_ov098_021838c8Ev kind:function(arm,size=0x30) addr:0x021838c8
_ZN16ActorTypeUnkEFRPD1Ev kind:function(arm,size=0x14) addr:0x021838f8
_ZN16ActorTypeUnkEFRI11GetInstanceEv kind:function(arm,size=0xc) addr:0x0218390c
_ZN16ActorTypeUnkEFRI6CreateEv kind:function(arm,size=0x24) addr:0x02183918
_ZN16ActorTypeUnkEFRIC1Ev kind:function(arm,size=0x60) addr:0x0218393c
_ZN16ActorTypeUnkEFRI19func_ov098_0218399cEv kind:function(arm,size=0x20) addr:0x0218399c
_ZN16ActorTypeUnkEFRI19func_ov098_021839bcEv kind:function(arm,size=0x9c) addr:0x021839bc
_ZN16ActorTypeUnkEFRI19func_ov098_02183a58Ev kind:function(arm,size=0x1c) addr:0x02183a58
_ZN16ActorTypeUnkEFRI19func_ov098_02183a74Ev kind:function(arm,size=0x30) addr:0x02183a74
_ZN16ActorTypeUnkEFRI19func_ov098_02183aa4Ev kind:function(arm,size=0x38) addr:0x02183aa4
_ZN16ActorTypeUnkEFRID1Ev kind:function(arm,size=0x14) addr:0x02183adc
_ZN16ActorTypeUnkSEAT11GetInstanceEv kind:function(arm,size=0xc) addr:0x02183af0
_ZN16ActorTypeUnkSEAT6CreateEv kind:function(arm,size=0x24) addr:0x02183afc
_ZN16ActorTypeUnkSEATC1Ev kind:function(arm,size=0x28) addr:0x02183b20
_ZN16ActorTypeUnkSEAT19func_ov098_02183b48Ev kind:function(arm,size=0x128) addr:0x02183b48
_ZN16ActorTypeUnkSEAT19func_ov098_02183c70Ev kind:function(arm,size=0x20) addr:0x02183c70
_ZN16ActorTypeUnkSEAT19func_ov098_02183c90Ev kind:function(arm,size=0x1c) addr:0x02183c90
_ZN16ActorTypeUnkSEAT19func_ov098_02183cacEv kind:function(arm,size=0x14) addr:0x02183cac
_ZN16ActorTypeUnkSEAT19func_ov098_02183cc0Ev kind:function(arm,size=0x20) addr:0x02183cc0
_ZN16ActorTypeUnkSEAT19func_ov098_02183ce0Ev kind:function(arm,size=0x20) addr:0x02183ce0
_ZN16ActorTypeUnkSEAT19func_ov098_02183d00Ev kind:function(arm,size=0x28) addr:0x02183d00
_ZN16ActorTypeUnkSEATD1Ev kind:function(arm,size=0x14) addr:0x02183d28
data_ov098_02183d3c kind:data(any) addr:0x02183d3c
__sinit_ov098_02183d50 kind:function(arm,size=0x50) addr:0x02183d50
__sinit_ov098_02183da0 kind:function(arm,size=0x50) addr:0x02183da0
__sinit_ov098_02183df0 kind:function(arm,size=0x50) addr:0x02183df0
__sinit_ov098_02183e40 kind:function(arm,size=0x50) addr:0x02183e40
__sinit_ov098_02183e90 kind:function(arm,size=0x50) addr:0x02183e90
.p__sinit_ov098_02183d50 kind:data(word) addr:0x02183ee0
.p__sinit_ov098_02183da0 kind:data(word) addr:0x02183ee4
.p__sinit_ov098_02183df0 kind:data(word) addr:0x02183ee8
.p__sinit_ov098_02183e40 kind:data(word) addr:0x02183eec
.p__sinit_ov098_02183e90 kind:data(word) addr:0x02183ef0
data_ov098_02183f08 kind:data(any) addr:0x02183f08
_ZTV19data_ov098_02183f0c kind:data(any) addr:0x02183f0c
data_ov098_02183f30 kind:data(any) addr:0x02183f30
data_ov098_02183f48 kind:data(any) addr:0x02183f48
data_ov098_02183f68 kind:data(any) addr:0x02183f68
data_ov098_02183fb0 kind:data(any) addr:0x02183fb0
_ZTV19data_ov098_02183ff0 kind:data(any) addr:0x02183ff0
_ZTV19data_ov098_02184050 kind:data(any) addr:0x02184050
data_ov098_02184074 kind:data(any) addr:0x02184074
data_ov098_0218408c kind:data(any) addr:0x0218408c
_ZTV19data_ov098_021840a4 kind:data(any) addr:0x021840a4
_ZTV19data_ov098_02184104 kind:data(any) addr:0x02184104
data_ov098_02184128 kind:data(any) addr:0x02184128
data_ov098_02184140 kind:data(any) addr:0x02184140
_ZTV19data_ov098_02184158 kind:data(any) addr:0x02184158
_ZTV19data_ov098_021841b8 kind:data(any) addr:0x021841b8
data_ov098_021841dc kind:data(any) addr:0x021841dc
data_ov098_021841f4 kind:data(any) addr:0x021841f4
_ZTV19data_ov098_0218420c kind:data(any) addr:0x0218420c
_ZTV19data_ov098_0218426c kind:data(any) addr:0x0218426c
_ZTV19data_ov098_02184290 kind:data(any) addr:0x02184290
data_ov098_02184300 kind:bss addr:0x02184300
data_ov098_02184304 kind:bss addr:0x02184304
data_ov098_02184310 kind:bss addr:0x02184310
data_ov098_021843e8 kind:bss addr:0x021843e8
data_ov098_021843ec kind:bss addr:0x021843ec
data_ov098_021843f8 kind:bss addr:0x021843f8
data_ov098_021844d0 kind:bss addr:0x021844d0
data_ov098_021844d4 kind:bss addr:0x021844d4
data_ov098_021844e0 kind:bss addr:0x021844e0
data_ov098_021845b8 kind:bss addr:0x021845b8
data_ov098_021845bc kind:bss addr:0x021845bc
data_ov098_021845c8 kind:bss addr:0x021845c8
data_ov098_021846a0 kind:bss addr:0x021846a0
data_ov098_021846a4 kind:bss addr:0x021846a4
data_ov098_021846b0 kind:bss addr:0x021846b0
data_ov098_021846ec kind:bss addr:0x021846ec
