_ZN16ActorTypeUnkSZRD11GetInstanceEv kind:function(arm,size=0xc) addr:0x02167b00
_ZN16ActorTypeUnkSZRD6CreateEv kind:function(arm,size=0x28) addr:0x02167b0c
_ZN16ActorTypeUnkSZRDC1Ev kind:function(arm,size=0x68) addr:0x02167b34
_ZN16ActorTypeUnkSZRD19func_ov090_02167b9cEv kind:function(arm,size=0x18) addr:0x02167b9c
_ZN16ActorTypeUnkSZRD19func_ov090_02167bb4Ev kind:function(arm,size=0x28) addr:0x02167bb4
_ZN16ActorTypeUnkSZRD19func_ov090_02167bdcEv kind:function(arm,size=0x68) addr:0x02167bdc
_ZN16ActorTypeUnkSZRD19func_ov090_02167c44Ev kind:function(arm,size=0x24) addr:0x02167c44
_ZN16ActorTypeUnkSZRD19func_ov090_02167c68Ev kind:function(arm,size=0x7c) addr:0x02167c68
_ZN16ActorTypeUnkSZRD19func_ov090_02167ce4Ev kind:function(arm,size=0x28) addr:0x02167ce4
_ZN16ActorTypeUnkSZRD19func_ov090_02167d0cEv kind:function(arm,size=0x2c) addr:0x02167d0c
_ZN16ActorTypeUnkSZRD19func_ov090_02167d38Ev kind:function(arm,size=0x314) addr:0x02167d38
_ZN16ActorTypeUnkSZRD19func_ov090_0216804cEv kind:function(arm,size=0x14) addr:0x0216804c
_ZN16ActorTypeUnkSZRD19func_ov090_02168060Ev kind:function(arm,size=0x14) addr:0x02168060
_ZN16ActorTypeUnkSZRD19func_ov090_02168074Ev kind:function(arm,size=0x7c) addr:0x02168074
_ZN16ActorTypeUnkSZRD19func_ov090_021680f0Ev kind:function(arm,size=0x84) addr:0x021680f0
_ZN16ActorTypeUnkSZRD19func_ov090_02168174Ev kind:function(arm,size=0x1d4) addr:0x02168174
_ZN16ActorTypeUnkSZRD19func_ov090_02168348Ev kind:function(arm,size=0xa4) addr:0x02168348
_ZN16ActorTypeUnkSZRD19func_ov090_021683ecEv kind:function(arm,size=0x198) addr:0x021683ec
_ZN16ActorTypeUnkSZRD19func_ov090_02168584Ev kind:function(arm,size=0xa4) addr:0x02168584
_ZN16ActorTypeUnkSZRD19func_ov090_02168628Ev kind:function(arm,size=0xe0) addr:0x02168628
_ZN16ActorTypeUnkSZRD19func_ov090_02168708Ev kind:function(arm,size=0x50) addr:0x02168708
_ZN16ActorTypeUnkSZRD19func_ov090_02168758Ev kind:function(arm,size=0xd4) addr:0x02168758
_ZN16ActorTypeUnkSZRD19func_ov090_0216882cEv kind:function(arm,size=0xdc) addr:0x0216882c
_ZN16ActorTypeUnkSZRD19func_ov090_02168908Ev kind:function(arm,size=0x1c4) addr:0x02168908
_ZN16ActorTypeUnkSZRD19func_ov090_02168accEv kind:function(arm,size=0x9c) addr:0x02168acc
_ZN16ActorTypeUnkSZRD19func_ov090_02168b68Ev kind:function(arm,size=0x1d0) addr:0x02168b68
_ZN16ActorTypeUnkSZRD19func_ov090_02168d38Ev kind:function(arm,size=0x78) addr:0x02168d38
_ZN16ActorTypeUnkSZRD19func_ov090_02168db0Ev kind:function(arm,size=0x144) addr:0x02168db0
_ZN16ActorTypeUnkSZRD19func_ov090_02168ef4Ev kind:function(arm,size=0x70) addr:0x02168ef4
_ZN16ActorTypeUnkSZRD19func_ov090_02168f64Ev kind:function(arm,size=0x20c) addr:0x02168f64
_ZN16ActorTypeUnkSZRD19func_ov090_02169170Ev kind:function(arm,size=0xc) addr:0x02169170
_ZN16ActorTypeUnkSZRD19func_ov090_0216917cEv kind:function(arm,size=0x5c) addr:0x0216917c
_ZN16ActorTypeUnkSZRD19func_ov090_021691d8Ev kind:function(arm,size=0xe0) addr:0x021691d8
_ZN16ActorTypeUnkSZRD19func_ov090_021692b8Ev kind:function(arm,size=0x1dc) addr:0x021692b8
_ZN16ActorTypeUnkSZRD19func_ov090_02169494Ev kind:function(arm,size=0x58) addr:0x02169494
_ZN16ActorTypeUnkSZRD19func_ov090_021694ecEv kind:function(arm,size=0x610) addr:0x021694ec
_ZN16ActorTypeUnkSZRD19func_ov090_02169afcEv kind:function(arm,size=0xc) addr:0x02169afc
_ZN16ActorTypeUnkSZRD19func_ov090_02169b08Ev kind:function(arm,size=0x168) addr:0x02169b08
_ZN16ActorTypeUnkSZRD19func_ov090_02169c70Ev kind:function(arm,size=0x94) addr:0x02169c70
_ZN16ActorTypeUnkSZRD19func_ov090_02169d04Ev kind:function(arm,size=0x138) addr:0x02169d04
_ZN16ActorTypeUnkSZRD19func_ov090_02169e3cEv kind:function(arm,size=0x358) addr:0x02169e3c
_ZN16ActorTypeUnkSZRD19func_ov090_0216a194Ev kind:function(arm,size=0x10) addr:0x0216a194
_ZN16ActorTypeUnkSZRD19func_ov090_0216a1a4Ev kind:function(arm,size=0x434) addr:0x0216a1a4
_ZN16ActorTypeUnkSZRD19func_ov090_0216a5d8Ev kind:function(arm,size=0x14) addr:0x0216a5d8
_ZN16ActorTypeUnkSZRD19func_ov090_0216a5ecEv kind:function(arm,size=0x38) addr:0x0216a5ec
_ZN16ActorTypeUnkSZRD19func_ov090_0216a624Ev kind:function(arm,size=0xd0) addr:0x0216a624
_ZN16ActorTypeUnkSZRD19func_ov090_0216a6f4Ev kind:function(arm,size=0x28) addr:0x0216a6f4
_ZN16ActorTypeUnkSZRD19func_ov090_0216a71cEv kind:function(arm,size=0x74) addr:0x0216a71c
_ZN16ActorTypeUnkSZRD19func_ov090_0216a790Ev kind:function(arm,size=0x4c) addr:0x0216a790
_ZN16ActorTypeUnkSZRD19func_ov090_0216a7dcEv kind:function(arm,size=0x2c) addr:0x0216a7dc
_ZN16ActorTypeUnkSZRD19func_ov090_0216a808Ev kind:function(arm,size=0x94) addr:0x0216a808
_ZN16ActorTypeUnkSZRD19func_ov090_0216a89cEv kind:function(arm,size=0x18) addr:0x0216a89c
_ZN16ActorTypeUnkSZRD19func_ov090_0216a8b4Ev kind:function(arm,size=0xc4) addr:0x0216a8b4
_ZN16ActorTypeUnkSZRD19func_ov090_0216a978Ev kind:function(arm,size=0x90) addr:0x0216a978
_ZN16ActorTypeUnkSZRD19func_ov090_0216aa08Ev kind:function(arm,size=0x190) addr:0x0216aa08
_ZN16ActorTypeUnkSZRD19func_ov090_0216ab98Ev kind:function(arm,size=0x13c) addr:0x0216ab98
_ZN16ActorTypeUnkSZRD19func_ov090_0216acd4Ev kind:function(arm,size=0x24) addr:0x0216acd4
_ZN16ActorTypeUnkSZRD19func_ov090_0216acf8Ev kind:function(arm,size=0x10) addr:0x0216acf8
_ZN16ActorTypeUnkSZRD19func_ov090_0216ad08Ev kind:function(arm,size=0x8) addr:0x0216ad08
_ZN16ActorTypeUnkSZRD19func_ov090_0216ad10Ev kind:function(arm,size=0x24) addr:0x0216ad10
_ZN16ActorTypeUnkSZRD19func_ov090_0216ad34Ev kind:function(arm,size=0x2c) addr:0x0216ad34
_ZN16ActorTypeUnkSZRD19func_ov090_0216ad60Ev kind:function(arm,size=0x1c) addr:0x0216ad60
_ZN16ActorTypeUnkSZRD19func_ov090_0216ad7cEv kind:function(arm,size=0x1c) addr:0x0216ad7c
_ZN16ActorTypeUnkSZRDD1Ev kind:function(arm,size=0x14) addr:0x0216ad98
_ZN16ActorTypeUnkWDBA11GetInstanceEv kind:function(arm,size=0xc) addr:0x0216adac
_ZN16ActorTypeUnkWDBA6CreateEv kind:function(arm,size=0x24) addr:0x0216adb8
_ZN16ActorTypeUnkWDBAC1Ev kind:function(arm,size=0x70) addr:0x0216addc
_ZN16ActorTypeUnkWDBA19func_ov090_0216ae4cEv kind:function(arm,size=0x228) addr:0x0216ae4c
_ZN16ActorTypeUnkWDBA19func_ov090_0216b074Ev kind:function(arm,size=0x294) addr:0x0216b074
_ZN16ActorTypeUnkWDBA19func_ov090_0216b308Ev kind:function(arm,size=0x5c) addr:0x0216b308
_ZN16ActorTypeUnkWDBA19func_ov090_0216b364Ev kind:function(arm,size=0x4c) addr:0x0216b364
_ZN16ActorTypeUnkWDBA19func_ov090_0216b3b0Ev kind:function(arm,size=0x394) addr:0x0216b3b0
_ZN16ActorTypeUnkWDBA19func_ov090_0216b744Ev kind:function(arm,size=0xec) addr:0x0216b744
_ZN16ActorTypeUnkWDBA19func_ov090_0216b830Ev kind:function(arm,size=0x104) addr:0x0216b830
_ZN16ActorTypeUnkWDBA19func_ov090_0216b934Ev kind:function(arm,size=0x10c) addr:0x0216b934
_ZN16ActorTypeUnkWDBA19func_ov090_0216ba40Ev kind:function(arm,size=0x180) addr:0x0216ba40
_ZN16ActorTypeUnkWDBA19func_ov090_0216bbc0Ev kind:function(arm,size=0x158) addr:0x0216bbc0
_ZN16ActorTypeUnkWDBA19func_ov090_0216bd18Ev kind:function(arm,size=0x33c) addr:0x0216bd18
_ZN16ActorTypeUnkWDBA19func_ov090_0216c054Ev kind:function(arm,size=0x140) addr:0x0216c054
_ZN16ActorTypeUnkWDBA19func_ov090_0216c194Ev kind:function(arm,size=0x2a0) addr:0x0216c194
_ZN16ActorTypeUnkWDBA19func_ov090_0216c434Ev kind:function(arm,size=0x90) addr:0x0216c434
_ZN16ActorTypeUnkWDBA19func_ov090_0216c4c4Ev kind:function(arm,size=0x3ac) addr:0x0216c4c4
_ZN16ActorTypeUnkWDBA19func_ov090_0216c870Ev kind:function(arm,size=0x4c) addr:0x0216c870
_ZN16ActorTypeUnkWDBA19func_ov090_0216c8bcEv kind:function(arm,size=0xb4) addr:0x0216c8bc
_ZN16ActorTypeUnkWDBA19func_ov090_0216c970Ev kind:function(arm,size=0x21c) addr:0x0216c970
_ZN16ActorTypeUnkWDBA19func_ov090_0216cb8cEv kind:function(arm,size=0x84) addr:0x0216cb8c
_ZN16ActorTypeUnkWDBA19func_ov090_0216cc10Ev kind:function(arm,size=0x19c) addr:0x0216cc10
_ZN16ActorTypeUnkWDBA19func_ov090_0216cdacEv kind:function(arm,size=0x54) addr:0x0216cdac
_ZN16ActorTypeUnkWDBA19func_ov090_0216ce00Ev kind:function(arm,size=0xd0) addr:0x0216ce00
_ZN16ActorTypeUnkWDBA19func_ov090_0216ced0Ev kind:function(arm,size=0x70) addr:0x0216ced0
_ZN16ActorTypeUnkWDBA19func_ov090_0216cf40Ev kind:function(arm,size=0x270) addr:0x0216cf40
_ZN16ActorTypeUnkWDBA19func_ov090_0216d1b0Ev kind:function(arm,size=0x104) addr:0x0216d1b0
_ZN16ActorTypeUnkWDBA19func_ov090_0216d2b4Ev kind:function(arm,size=0x300) addr:0x0216d2b4
_ZN16ActorTypeUnkWDBA19func_ov090_0216d5b4Ev kind:function(arm,size=0x98) addr:0x0216d5b4
_ZN16ActorTypeUnkWDBA19func_ov090_0216d64cEv kind:function(arm,size=0x19c) addr:0x0216d64c
_ZN16ActorTypeUnkWDBA19func_ov090_0216d7e8Ev kind:function(arm,size=0x150) addr:0x0216d7e8
_ZN16ActorTypeUnkWDBA19func_ov090_0216d938Ev kind:function(arm,size=0xe0) addr:0x0216d938
_ZN16ActorTypeUnkWDBA19func_ov090_0216da18Ev kind:function(arm,size=0x8c) addr:0x0216da18
_ZN16ActorTypeUnkWDBA19func_ov090_0216daa4Ev kind:function(arm,size=0x4) addr:0x0216daa4
_ZN16ActorTypeUnkWDBA19func_ov090_0216daa8Ev kind:function(arm,size=0xb1c) addr:0x0216daa8
_ZN16ActorTypeUnkWDBA19func_ov090_0216e5c4Ev kind:function(arm,size=0x220) addr:0x0216e5c4
_ZN16ActorTypeUnkWDBA19func_ov090_0216e7e4Ev kind:function(arm,size=0xb0) addr:0x0216e7e4
_ZN16ActorTypeUnkWDBA19func_ov090_0216e894Ev kind:function(arm,size=0xb8) addr:0x0216e894
_ZN16ActorTypeUnkWDBA19func_ov090_0216e94cEv kind:function(arm,size=0xb8) addr:0x0216e94c
_ZN16ActorTypeUnkWDBA19func_ov090_0216ea04Ev kind:function(arm,size=0x74) addr:0x0216ea04
_ZN16ActorTypeUnkWDBA19func_ov090_0216ea78Ev kind:function(arm,size=0x160) addr:0x0216ea78
_ZN16ActorTypeUnkWDBA19func_ov090_0216ebd8Ev kind:function(arm,size=0x28) addr:0x0216ebd8
_ZN16ActorTypeUnkWDBA19func_ov090_0216ec00Ev kind:function(arm,size=0x2e4) addr:0x0216ec00
_ZN16ActorTypeUnkWDBA19func_ov090_0216eee4Ev kind:function(arm,size=0x88) addr:0x0216eee4
_ZN16ActorTypeUnkWDBA19func_ov090_0216ef6cEv kind:function(arm,size=0x4c) addr:0x0216ef6c
_ZN16ActorTypeUnkWDBA19func_ov090_0216efb8Ev kind:function(arm,size=0x28) addr:0x0216efb8
_ZN16ActorTypeUnkWDBA19func_ov090_0216efe0Ev kind:function(arm,size=0x58) addr:0x0216efe0
_ZN16ActorTypeUnkWDBA19func_ov090_0216f038Ev kind:function(arm,size=0xa4) addr:0x0216f038
_ZN16ActorTypeUnkWDBA19func_ov090_0216f0dcEv kind:function(arm,size=0x68) addr:0x0216f0dc
_ZN16ActorTypeUnkWDBA19func_ov090_0216f144Ev kind:function(arm,size=0x3c) addr:0x0216f144
_ZN16ActorTypeUnkWDBA19func_ov090_0216f180Ev kind:function(arm,size=0x88) addr:0x0216f180
_ZN16ActorTypeUnkWDBA19func_ov090_0216f208Ev kind:function(arm,size=0xcc) addr:0x0216f208
_ZN16ActorTypeUnkWDBA19func_ov090_0216f2d4Ev kind:function(arm,size=0x30) addr:0x0216f2d4
_ZN16ActorTypeUnkWDBA19func_ov090_0216f304Ev kind:function(arm,size=0xd8) addr:0x0216f304
_ZN16ActorTypeUnkWDBA19func_ov090_0216f3dcEv kind:function(arm,size=0x1c8) addr:0x0216f3dc
_ZN16ActorTypeUnkWDBA19func_ov090_0216f5a4Ev kind:function(arm,size=0xc0) addr:0x0216f5a4
_ZN16ActorTypeUnkWDBA19func_ov090_0216f664Ev kind:function(arm,size=0x128) addr:0x0216f664
_ZN16ActorTypeUnkWDBA19func_ov090_0216f78cEv kind:function(arm,size=0x28) addr:0x0216f78c
_ZN16ActorTypeUnkWDBA19func_ov090_0216f7b4Ev kind:function(arm,size=0x1c) addr:0x0216f7b4
_ZN16ActorTypeUnkWDBA19func_ov090_0216f7d0Ev kind:function(arm,size=0x24) addr:0x0216f7d0
_ZN16ActorTypeUnkWDBA19func_ov090_0216f7f4Ev kind:function(arm,size=0x8) addr:0x0216f7f4
_ZN16ActorTypeUnkWDBA19func_ov090_0216f7fcEv kind:function(arm,size=0x2d4) addr:0x0216f7fc
_ZN16ActorTypeUnkWDBA19func_ov090_0216fad0Ev kind:function(arm,size=0x1fc) addr:0x0216fad0
_ZN16ActorTypeUnkWDBA19func_ov090_0216fcccEv kind:function(arm,size=0x90) addr:0x0216fccc
_ZN16ActorTypeUnkWDBA19func_ov090_0216fd5cEv kind:function(arm,size=0x1a8) addr:0x0216fd5c
_ZN16ActorTypeUnkWDBA19func_ov090_0216ff04Ev kind:function(arm,size=0x38) addr:0x0216ff04
_ZN16ActorTypeUnkWDBA19func_ov090_0216ff3cEv kind:function(arm,size=0x40) addr:0x0216ff3c
_ZN16ActorTypeUnkWDBAD1Ev kind:function(arm,size=0x14) addr:0x0216ff7c
_ZN16ActorTypeUnkWDRD11GetInstanceEv kind:function(arm,size=0xc) addr:0x0216ff90
_ZN16ActorTypeUnkWDRD6CreateEv kind:function(arm,size=0x24) addr:0x0216ff9c
_ZN16ActorTypeUnkWDRDC1Ev kind:function(arm,size=0x6c) addr:0x0216ffc0
_ZN16ActorTypeUnkWDRD19func_ov090_0217002cEv kind:function(arm,size=0x160) addr:0x0217002c
_ZN16ActorTypeUnkWDRD19func_ov090_0217018cEv kind:function(arm,size=0x5c) addr:0x0217018c
_ZN16ActorTypeUnkWDRD19func_ov090_021701e8Ev kind:function(arm,size=0x50) addr:0x021701e8
_ZN16ActorTypeUnkWDRD19func_ov090_02170238Ev kind:function(arm,size=0x38) addr:0x02170238
_ZN16ActorTypeUnkWDRD19func_ov090_02170270Ev kind:function(arm,size=0xb0) addr:0x02170270
_ZN16ActorTypeUnkWDRD19func_ov090_02170320Ev kind:function(arm,size=0x64) addr:0x02170320
_ZN16ActorTypeUnkWDRD19func_ov090_02170384Ev kind:function(arm,size=0x8c) addr:0x02170384
_ZN16ActorTypeUnkWDRD19func_ov090_02170410Ev kind:function(arm,size=0x68) addr:0x02170410
_ZN16ActorTypeUnkWDRD19func_ov090_02170478Ev kind:function(arm,size=0xf4) addr:0x02170478
_ZN16ActorTypeUnkWDRD19func_ov090_0217056cEv kind:function(arm,size=0x124) addr:0x0217056c
_ZN16ActorTypeUnkWDRD19func_ov090_02170690Ev kind:function(arm,size=0x64) addr:0x02170690
_ZN16ActorTypeUnkWDRD19func_ov090_021706f4Ev kind:function(arm,size=0xb4) addr:0x021706f4
_ZN16ActorTypeUnkWDRD19func_ov090_021707a8Ev kind:function(arm,size=0xac) addr:0x021707a8
_ZN16ActorTypeUnkWDRD19func_ov090_02170854Ev kind:function(arm,size=0xbc) addr:0x02170854
_ZN16ActorTypeUnkWDRD19func_ov090_02170910Ev kind:function(arm,size=0x8c) addr:0x02170910
_ZN16ActorTypeUnkWDRD19func_ov090_0217099cEv kind:function(arm,size=0x198) addr:0x0217099c
_ZN16ActorTypeUnkWDRD19func_ov090_02170b34Ev kind:function(arm,size=0x84) addr:0x02170b34
_ZN16ActorTypeUnkWDRD19func_ov090_02170bb8Ev kind:function(arm,size=0x98) addr:0x02170bb8
_ZN16ActorTypeUnkWDRD19func_ov090_02170c50Ev kind:function(arm,size=0xe0) addr:0x02170c50
_ZN16ActorTypeUnkWDRD19func_ov090_02170d30Ev kind:function(arm,size=0x7c) addr:0x02170d30
_ZN16ActorTypeUnkWDRD19func_ov090_02170dacEv kind:function(arm,size=0x38) addr:0x02170dac
_ZN16ActorTypeUnkWDRD19func_ov090_02170de4Ev kind:function(arm,size=0x4) addr:0x02170de4
_ZN16ActorTypeUnkWDRD19func_ov090_02170de8Ev kind:function(arm,size=0x60) addr:0x02170de8
_ZN16ActorTypeUnkWDRD19func_ov090_02170e48Ev kind:function(arm,size=0x64) addr:0x02170e48
_ZN16ActorTypeUnkWDRD19func_ov090_02170eacEv kind:function(arm,size=0x98) addr:0x02170eac
_ZN16ActorTypeUnkWDRD19func_ov090_02170f44Ev kind:function(arm,size=0xf0) addr:0x02170f44
_ZN16ActorTypeUnkWDRD19func_ov090_02171034Ev kind:function(arm,size=0x98) addr:0x02171034
_ZN16ActorTypeUnkWDRD19func_ov090_021710ccEv kind:function(arm,size=0x80) addr:0x021710cc
_ZN16ActorTypeUnkWDRD19func_ov090_0217114cEv kind:function(arm,size=0x74) addr:0x0217114c
_ZN16ActorTypeUnkWDRD19func_ov090_021711c0Ev kind:function(arm,size=0x184) addr:0x021711c0
_ZN16ActorTypeUnkWDRD19func_ov090_02171344Ev kind:function(arm,size=0x104) addr:0x02171344
_ZN16ActorTypeUnkWDRD19func_ov090_02171448Ev kind:function(arm,size=0x1c) addr:0x02171448
_ZN16ActorTypeUnkWDRD19func_ov090_02171464Ev kind:function(arm,size=0x254) addr:0x02171464
_ZN16ActorTypeUnkWDRD19func_ov090_021716b8Ev kind:function(arm,size=0x30) addr:0x021716b8
_ZN16ActorTypeUnkWDRD19func_ov090_021716e8Ev kind:function(arm,size=0x38) addr:0x021716e8
_ZN16ActorTypeUnkWDRDD1Ev kind:function(arm,size=0x14) addr:0x02171720
_ZN16ActorTypeUnkSPID11GetInstanceEv kind:function(arm,size=0xc) addr:0x02171734
_ZN16ActorTypeUnkSPID6CreateEv kind:function(arm,size=0x24) addr:0x02171740
_ZN16ActorTypeUnkSPIDC1Ev kind:function(arm,size=0x7c) addr:0x02171764
_ZN16ActorTypeUnkSPID19func_ov090_021717e0Ev kind:function(arm,size=0x250) addr:0x021717e0
_ZN16ActorTypeUnkSPID19func_ov090_02171a30Ev kind:function(arm,size=0x14) addr:0x02171a30
_ZN16ActorTypeUnkSPID19func_ov090_02171a44Ev kind:function(arm,size=0x14) addr:0x02171a44
_ZN16ActorTypeUnkSPID19func_ov090_02171a58Ev kind:function(arm,size=0x58) addr:0x02171a58
_ZN16ActorTypeUnkSPID19func_ov090_02171ab0Ev kind:function(arm,size=0x34) addr:0x02171ab0
_ZN16ActorTypeUnkSPID19func_ov090_02171ae4Ev kind:function(arm,size=0x278) addr:0x02171ae4
_ZN16ActorTypeUnkSPID19func_ov090_02171d5cEv kind:function(arm,size=0x54) addr:0x02171d5c
_ZN16ActorTypeUnkSPID19func_ov090_02171db0Ev kind:function(arm,size=0x2f4) addr:0x02171db0
_ZN16ActorTypeUnkSPID19func_ov090_021720a4Ev kind:function(arm,size=0x88) addr:0x021720a4
_ZN16ActorTypeUnkSPID19func_ov090_0217212cEv kind:function(arm,size=0x120) addr:0x0217212c
_ZN16ActorTypeUnkSPID19func_ov090_0217224cEv kind:function(arm,size=0x13c) addr:0x0217224c
_ZN16ActorTypeUnkSPID19func_ov090_02172388Ev kind:function(arm,size=0x11c) addr:0x02172388
_ZN16ActorTypeUnkSPID19func_ov090_021724a4Ev kind:function(arm,size=0x88) addr:0x021724a4
_ZN16ActorTypeUnkSPID19func_ov090_0217252cEv kind:function(arm,size=0x80) addr:0x0217252c
_ZN16ActorTypeUnkSPID19func_ov090_021725acEv kind:function(arm,size=0x44) addr:0x021725ac
_ZN16ActorTypeUnkSPID19func_ov090_021725f0Ev kind:function(arm,size=0x24) addr:0x021725f0
_ZN16ActorTypeUnkSPID19func_ov090_02172614Ev kind:function(arm,size=0x1c) addr:0x02172614
_ZN16ActorTypeUnkSPID19func_ov090_02172630Ev kind:function(arm,size=0xb8) addr:0x02172630
_ZN16ActorTypeUnkSPID19func_ov090_021726e8Ev kind:function(arm,size=0x18) addr:0x021726e8
_ZN16ActorTypeUnkSPID19func_ov090_02172700Ev kind:function(arm,size=0x60) addr:0x02172700
_ZN16ActorTypeUnkSPID19func_ov090_02172760Ev kind:function(arm,size=0x40) addr:0x02172760
_ZN16ActorTypeUnkSPID19func_ov090_021727a0Ev kind:function(arm,size=0x14c) addr:0x021727a0
_ZN16ActorTypeUnkSPID19func_ov090_021728ecEv kind:function(arm,size=0x2c) addr:0x021728ec
_ZN16ActorTypeUnkSPID19func_ov090_02172918Ev kind:function(arm,size=0x14c) addr:0x02172918
_ZN16ActorTypeUnkSPID19func_ov090_02172a64Ev kind:function(arm,size=0x18) addr:0x02172a64
_ZN16ActorTypeUnkSPID19func_ov090_02172a7cEv kind:function(arm,size=0x38) addr:0x02172a7c
_ZN16ActorTypeUnkSPID19func_ov090_02172ab4Ev kind:function(arm,size=0x24) addr:0x02172ab4
_ZN16ActorTypeUnkSPID19func_ov090_02172ad8Ev kind:function(arm,size=0x114) addr:0x02172ad8
_ZN16ActorTypeUnkSPID19func_ov090_02172becEv kind:function(arm,size=0x8c) addr:0x02172bec
_ZN16ActorTypeUnkSPID19func_ov090_02172c78Ev kind:function(arm,size=0xc4) addr:0x02172c78
_ZN16ActorTypeUnkSPID19func_ov090_02172d3cEv kind:function(arm,size=0xcc) addr:0x02172d3c
_ZN16ActorTypeUnkSPID19func_ov090_02172e08Ev kind:function(arm,size=0xf4) addr:0x02172e08
_ZN16ActorTypeUnkSPID19func_ov090_02172efcEv kind:function(arm,size=0x30) addr:0x02172efc
_ZN16ActorTypeUnkSPID19func_ov090_02172f2cEv kind:function(arm,size=0xac) addr:0x02172f2c
_ZN16ActorTypeUnkSPID19func_ov090_02172fd8Ev kind:function(arm,size=0x18) addr:0x02172fd8
_ZN16ActorTypeUnkSPID19func_ov090_02172ff0Ev kind:function(arm,size=0x5c) addr:0x02172ff0
_ZN16ActorTypeUnkSPID19func_ov090_0217304cEv kind:function(arm,size=0xac) addr:0x0217304c
_ZN16ActorTypeUnkSPID19func_ov090_021730f8Ev kind:function(arm,size=0x34) addr:0x021730f8
_ZN16ActorTypeUnkSPID19func_ov090_0217312cEv kind:function(arm,size=0x1c) addr:0x0217312c
_ZN16ActorTypeUnkSPID19func_ov090_02173148Ev kind:function(arm,size=0x1c) addr:0x02173148
_ZN16ActorTypeUnkSPID19func_ov090_02173164Ev kind:function(arm,size=0x30) addr:0x02173164
_ZN16ActorTypeUnkSPID19func_ov090_02173194Ev kind:function(arm,size=0x38) addr:0x02173194
_ZN16ActorTypeUnkSPIDD1Ev kind:function(arm,size=0x14) addr:0x021731cc
_ZN16ActorTypeUnkE3GL11GetInstanceEv kind:function(arm,size=0xc) addr:0x021731e0
_ZN16ActorTypeUnkE3GL6CreateEv kind:function(arm,size=0x24) addr:0x021731ec
_ZN16ActorTypeUnkE3GLC1Ev kind:function(arm,size=0x28) addr:0x02173210
_ZN16ActorTypeUnkE3GL19func_ov090_02173238Ev kind:function(arm,size=0x50) addr:0x02173238
_ZN16ActorTypeUnkE3GL19func_ov090_02173288Ev kind:function(arm,size=0x14) addr:0x02173288
_ZN16ActorTypeUnkE3GL19func_ov090_0217329cEv kind:function(arm,size=0x1c) addr:0x0217329c
_ZN16ActorTypeUnkE3GL19func_ov090_021732b8Ev kind:function(arm,size=0x10) addr:0x021732b8
_ZN16ActorTypeUnkE3GL19func_ov090_021732c8Ev kind:function(arm,size=0x10) addr:0x021732c8
_ZN16ActorTypeUnkE3GL19func_ov090_021732d8Ev kind:function(arm,size=0x94) addr:0x021732d8
_ZN16ActorTypeUnkE3GLD1Ev kind:function(arm,size=0x14) addr:0x0217336c
_ZN16ActorTypeUnkE3TT11GetInstanceEv kind:function(arm,size=0xc) addr:0x02173380
_ZN16ActorTypeUnkE3TT6CreateEv kind:function(arm,size=0x24) addr:0x0217338c
_ZN16ActorTypeUnkE3TTC1Ev kind:function(arm,size=0x28) addr:0x021733b0
_ZN16ActorTypeUnkE3TT19func_ov090_021733d8Ev kind:function(arm,size=0x30) addr:0x021733d8
_ZN16ActorTypeUnkE3TT19func_ov090_02173408Ev kind:function(arm,size=0x30) addr:0x02173408
_ZN16ActorTypeUnkE3TT19func_ov090_02173438Ev kind:function(arm,size=0x230) addr:0x02173438
_ZN16ActorTypeUnkE3TT19func_ov090_02173668Ev kind:function(arm,size=0x14) addr:0x02173668
_ZN16ActorTypeUnkE3TT19func_ov090_0217367cEv kind:function(arm,size=0x1c) addr:0x0217367c
_ZN16ActorTypeUnkE3TTD1Ev kind:function(arm,size=0x14) addr:0x02173698
_ZN16ActorTypeUnkE3ST11GetInstanceEv kind:function(arm,size=0xc) addr:0x021736ac
_ZN16ActorTypeUnkE3ST6CreateEv kind:function(arm,size=0x24) addr:0x021736b8
_ZN16ActorTypeUnkE3STC1Ev kind:function(arm,size=0x28) addr:0x021736dc
_ZN16ActorTypeUnkE3ST19func_ov090_02173704Ev kind:function(arm,size=0x40) addr:0x02173704
_ZN16ActorTypeUnkE3ST19func_ov090_02173744Ev kind:function(arm,size=0x14) addr:0x02173744
_ZN16ActorTypeUnkE3ST19func_ov090_02173758Ev kind:function(arm,size=0x1c) addr:0x02173758
_ZN16ActorTypeUnkE3ST19func_ov090_02173774Ev kind:function(arm,size=0x94) addr:0x02173774
_ZN16ActorTypeUnkE3STD1Ev kind:function(arm,size=0x14) addr:0x02173808
_ZN20MapObjectTypeUnkTWPG11GetInstanceEv kind:function(arm,size=0xc) addr:0x0217381c
_ZN20MapObjectTypeUnkTWPG6CreateEv kind:function(arm,size=0x24) addr:0x02173828
_ZN20MapObjectTypeUnkTWPGC1Ev kind:function(arm,size=0x50) addr:0x0217384c
_ZN20MapObjectTypeUnkTWPG19func_ov090_0217389cEv kind:function(arm,size=0x7c) addr:0x0217389c
_ZN20MapObjectTypeUnkTWPG19func_ov090_02173918Ev kind:function(arm,size=0x7c) addr:0x02173918
_ZN20MapObjectTypeUnkTWPG19func_ov090_02173994Ev kind:function(arm,size=0x37c) addr:0x02173994
_ZN20MapObjectTypeUnkTWPG19func_ov090_02173d10Ev kind:function(arm,size=0x4) addr:0x02173d10
_ZN20MapObjectTypeUnkTWPG19func_ov090_02173d14Ev kind:function(arm,size=0x390) addr:0x02173d14
_ZN20MapObjectTypeUnkTWPG19func_ov090_021740a4Ev kind:function(arm,size=0x14) addr:0x021740a4
_ZN20MapObjectTypeUnkTWPG19func_ov090_021740b8Ev kind:function(arm,size=0x1c) addr:0x021740b8
_ZN20MapObjectTypeUnkTWPG19func_ov090_021740d4Ev kind:function(arm,size=0x84) addr:0x021740d4
_ZN20MapObjectTypeUnkTWPG19func_ov090_02174158Ev kind:function(arm,size=0xc0) addr:0x02174158
_ZN20MapObjectTypeUnkTWPG19func_ov090_02174218Ev kind:function(arm,size=0x74) addr:0x02174218
_ZN20MapObjectTypeUnkTWPG19func_ov090_0217428cEv kind:function(arm,size=0x8) addr:0x0217428c
_ZN20MapObjectTypeUnkTWPG19func_ov090_02174294Ev kind:function(arm,size=0x50) addr:0x02174294
_ZN20MapObjectTypeUnkTWPG19func_ov090_021742e4Ev kind:function(arm,size=0x38) addr:0x021742e4
_ZN20MapObjectTypeUnkTWPG19func_ov090_0217431cEv kind:function(arm,size=0x38) addr:0x0217431c
_ZN20MapObjectTypeUnkTWPG19func_ov090_02174354Ev kind:function(arm,size=0x14) addr:0x02174354
_ZN20MapObjectTypeUnkTWPG19func_ov090_02174368Ev kind:function(arm,size=0x38) addr:0x02174368
_ZN20MapObjectTypeUnkTWPG19func_ov090_021743a0Ev kind:function(arm,size=0xc) addr:0x021743a0
_ZN20MapObjectTypeUnkTWPG19func_ov090_021743acEv kind:function(arm,size=0x8) addr:0x021743ac
_ZN20MapObjectTypeUnkTWPG19func_ov090_021743b4Ev kind:function(arm,size=0x38) addr:0x021743b4
_ZN20MapObjectTypeUnkTWPG19func_ov090_021743ecEv kind:function(arm,size=0x40) addr:0x021743ec
_ZN20MapObjectTypeUnkTWPGD1Ev kind:function(arm,size=0x14) addr:0x0217442c
_ZN20MapObjectTypeUnkTWGS11GetInstanceEv kind:function(arm,size=0xc) addr:0x02174440
_ZN20MapObjectTypeUnkTWGS6CreateEv kind:function(arm,size=0x24) addr:0x0217444c
_ZN20MapObjectTypeUnkTWGSC1Ev kind:function(arm,size=0xbc) addr:0x02174470
_ZN20MapObjectTypeUnkTWGS19func_ov090_0217452cEv kind:function(arm,size=0x4c) addr:0x0217452c
_ZN20MapObjectTypeUnkTWGS19func_ov090_02174578Ev kind:function(arm,size=0x14) addr:0x02174578
_ZN20MapObjectTypeUnkTWGS19func_ov090_0217458cEv kind:function(arm,size=0x48) addr:0x0217458c
_ZN20MapObjectTypeUnkTWGS19func_ov090_021745d4Ev kind:function(arm,size=0xdc) addr:0x021745d4
_ZN20MapObjectTypeUnkTWGS19func_ov090_021746b0Ev kind:function(arm,size=0x14) addr:0x021746b0
_ZN20MapObjectTypeUnkTWGS19func_ov090_021746c4Ev kind:function(arm,size=0x2d4) addr:0x021746c4
_ZN20MapObjectTypeUnkTWGS19func_ov090_02174998Ev kind:function(arm,size=0x50) addr:0x02174998
_ZN20MapObjectTypeUnkTWGS19func_ov090_021749e8Ev kind:function(arm,size=0x38) addr:0x021749e8
_ZN20MapObjectTypeUnkTWGS19func_ov090_02174a20Ev kind:function(arm,size=0x38) addr:0x02174a20
_ZN20MapObjectTypeUnkTWGS19func_ov090_02174a58Ev kind:function(arm,size=0x14) addr:0x02174a58
_ZN20MapObjectTypeUnkTWGS19func_ov090_02174a6cEv kind:function(arm,size=0x38) addr:0x02174a6c
_ZN20MapObjectTypeUnkTWGS19func_ov090_02174aa4Ev kind:function(arm,size=0x38) addr:0x02174aa4
_ZN20MapObjectTypeUnkTWGS19func_ov090_02174adcEv kind:function(arm,size=0x1c) addr:0x02174adc
_ZN20MapObjectTypeUnkTWGS19func_ov090_02174af8Ev kind:function(arm,size=0x40) addr:0x02174af8
_ZN20MapObjectTypeUnkTWGS19func_ov090_02174b38Ev kind:function(arm,size=0x48) addr:0x02174b38
_ZN20MapObjectTypeUnkTWGSD1Ev kind:function(arm,size=0x14) addr:0x02174b80
_ZN20MapObjectTypeUnkTWPC11GetInstanceEv kind:function(arm,size=0xc) addr:0x02174b94
_ZN20MapObjectTypeUnkTWPC6CreateEv kind:function(arm,size=0x24) addr:0x02174ba0
_ZN20MapObjectTypeUnkTWPCC1Ev kind:function(arm,size=0x50) addr:0x02174bc4
_ZN20MapObjectTypeUnkTWPC19func_ov090_02174c14Ev kind:function(arm,size=0x3c) addr:0x02174c14
_ZN20MapObjectTypeUnkTWPC19func_ov090_02174c50Ev kind:function(arm,size=0x38) addr:0x02174c50
_ZN20MapObjectTypeUnkTWPC19func_ov090_02174c88Ev kind:function(arm,size=0x40) addr:0x02174c88
_ZN20MapObjectTypeUnkTWPC19func_ov090_02174cc8Ev kind:function(arm,size=0xe4) addr:0x02174cc8
_ZN20MapObjectTypeUnkTWPC19func_ov090_02174dacEv kind:function(arm,size=0xe4) addr:0x02174dac
_ZN20MapObjectTypeUnkTWPC19func_ov090_02174e90Ev kind:function(arm,size=0x8) addr:0x02174e90
_ZN20MapObjectTypeUnkTWPC19func_ov090_02174e98Ev kind:function(arm,size=0x8) addr:0x02174e98
_ZN20MapObjectTypeUnkTWPC19func_ov090_02174ea0Ev kind:function(arm,size=0x4) addr:0x02174ea0
_ZN20MapObjectTypeUnkTWPC19func_ov090_02174ea4Ev kind:function(arm,size=0x4) addr:0x02174ea4
_ZN20MapObjectTypeUnkTWPC19func_ov090_02174ea8Ev kind:function(arm,size=0x3c) addr:0x02174ea8
_ZN20MapObjectTypeUnkTWPC19func_ov090_02174ee4Ev kind:function(arm,size=0x2c) addr:0x02174ee4
_ZN20MapObjectTypeUnkTWPC19func_ov090_02174f10Ev kind:function(arm,size=0x2c) addr:0x02174f10
_ZN20MapObjectTypeUnkTWPC19func_ov090_02174f3cEv kind:function(arm,size=0x2c) addr:0x02174f3c
_ZN20MapObjectTypeUnkTWPC19func_ov090_02174f68Ev kind:function(arm,size=0x8) addr:0x02174f68
_ZN20MapObjectTypeUnkTWPC19func_ov090_02174f70Ev kind:function(arm,size=0x28) addr:0x02174f70
_ZN20MapObjectTypeUnkTWPC19func_ov090_02174f98Ev kind:function(arm,size=0x20) addr:0x02174f98
_ZN20MapObjectTypeUnkTWPCD1Ev kind:function(arm,size=0x14) addr:0x02174fb8
_ZN20MapObjectTypeUnkSTTR11GetInstanceEv kind:function(arm,size=0xc) addr:0x02174fcc
_ZN20MapObjectTypeUnkSTTR6CreateEv kind:function(arm,size=0x24) addr:0x02174fd8
_ZN20MapObjectTypeUnkSTTRC1Ev kind:function(arm,size=0x28) addr:0x02174ffc
_ZN20MapObjectTypeUnkSTTR19func_ov090_02175024Ev kind:function(arm,size=0x48) addr:0x02175024
_ZN20MapObjectTypeUnkSTTR19func_ov090_0217506cEv kind:function(arm,size=0xe0) addr:0x0217506c
_ZN20MapObjectTypeUnkSTTR19func_ov090_0217514cEv kind:function(arm,size=0x50) addr:0x0217514c
_ZN20MapObjectTypeUnkSTTR19func_ov090_0217519cEv kind:function(arm,size=0x4) addr:0x0217519c
_ZN20MapObjectTypeUnkSTTR19func_ov090_021751a0Ev kind:function(arm,size=0x1c) addr:0x021751a0
_ZN20MapObjectTypeUnkSTTR19func_ov090_021751bcEv kind:function(arm,size=0x4c) addr:0x021751bc
_ZN20MapObjectTypeUnkSTTR19func_ov090_02175208Ev kind:function(arm,size=0x40) addr:0x02175208
_ZN20MapObjectTypeUnkSTTR19func_ov090_02175248Ev kind:function(arm,size=0x10) addr:0x02175248
_ZN20MapObjectTypeUnkSTTR19func_ov090_02175258Ev kind:function(arm,size=0x24) addr:0x02175258
_ZN20MapObjectTypeUnkSTTR19func_ov090_0217527cEv kind:function(arm,size=0x20) addr:0x0217527c
_ZN20MapObjectTypeUnkSTTR19func_ov090_0217529cEv kind:function(arm,size=0x14) addr:0x0217529c
_ZN20MapObjectTypeUnkSTTR19func_ov090_021752b0Ev kind:function(arm,size=0x1c) addr:0x021752b0
_ZN20MapObjectTypeUnkSTTRD1Ev kind:function(arm,size=0x14) addr:0x021752cc
_ZN20MapObjectTypeUnkTRGW11GetInstanceEv kind:function(arm,size=0xc) addr:0x021752e0
_ZN20MapObjectTypeUnkTRGW6CreateEv kind:function(arm,size=0x24) addr:0x021752ec
_ZN20MapObjectTypeUnkTRGWC1Ev kind:function(arm,size=0xb0) addr:0x02175310
_ZN20MapObjectTypeUnkTRGW19func_ov090_021753c0Ev kind:function(arm,size=0x3c) addr:0x021753c0
_ZN20MapObjectTypeUnkTRGW19func_ov090_021753fcEv kind:function(arm,size=0x50) addr:0x021753fc
_ZN20MapObjectTypeUnkTRGW19func_ov090_0217544cEv kind:function(arm,size=0xdc) addr:0x0217544c
_ZN20MapObjectTypeUnkTRGW19func_ov090_02175528Ev kind:function(arm,size=0x50) addr:0x02175528
_ZN20MapObjectTypeUnkTRGW19func_ov090_02175578Ev kind:function(arm,size=0xc) addr:0x02175578
_ZN20MapObjectTypeUnkTRGW19func_ov090_02175584Ev kind:function(arm,size=0x8c) addr:0x02175584
_ZN20MapObjectTypeUnkTRGW19func_ov090_02175610Ev kind:function(arm,size=0x20) addr:0x02175610
_ZN20MapObjectTypeUnkTRGW19func_ov090_02175630Ev kind:function(arm,size=0x28) addr:0x02175630
_ZN20MapObjectTypeUnkTRGWD1Ev kind:function(arm,size=0x14) addr:0x02175658
_ZN20MapObjectTypeUnkTRSD11GetInstanceEv kind:function(arm,size=0xc) addr:0x0217566c
_ZN20MapObjectTypeUnkTRSD6CreateEv kind:function(arm,size=0x24) addr:0x02175678
_ZN20MapObjectTypeUnkTRSDC1Ev kind:function(arm,size=0xb0) addr:0x0217569c
_ZN20MapObjectTypeUnkTRSD19func_ov090_0217574cEv kind:function(arm,size=0x38) addr:0x0217574c
_ZN20MapObjectTypeUnkTRSD19func_ov090_02175784Ev kind:function(arm,size=0xb8) addr:0x02175784
_ZN20MapObjectTypeUnkTRSD19func_ov090_0217583cEv kind:function(arm,size=0x50) addr:0x0217583c
_ZN20MapObjectTypeUnkTRSD19func_ov090_0217588cEv kind:function(arm,size=0xc) addr:0x0217588c
_ZN20MapObjectTypeUnkTRSD19func_ov090_02175898Ev kind:function(arm,size=0x8c) addr:0x02175898
_ZN20MapObjectTypeUnkTRSD19func_ov090_02175924Ev kind:function(arm,size=0x20) addr:0x02175924
_ZN20MapObjectTypeUnkTRSD19func_ov090_02175944Ev kind:function(arm,size=0x28) addr:0x02175944
_ZN20MapObjectTypeUnkTRSDD1Ev kind:function(arm,size=0x14) addr:0x0217596c
_ZN20MapObjectTypeUnkNPST11GetInstanceEv kind:function(arm,size=0xc) addr:0x02175980
_ZN20MapObjectTypeUnkNPST6CreateEv kind:function(arm,size=0x24) addr:0x0217598c
_ZN20MapObjectTypeUnkNPSTC1Ev kind:function(arm,size=0xac) addr:0x021759b0
_ZN20MapObjectTypeUnkNPST19func_ov090_02175a5cEv kind:function(arm,size=0x184) addr:0x02175a5c
_ZN20MapObjectTypeUnkNPST19func_ov090_02175be0Ev kind:function(arm,size=0x14) addr:0x02175be0
_ZN20MapObjectTypeUnkNPST19func_ov090_02175bf4Ev kind:function(arm,size=0x4) addr:0x02175bf4
_ZN20MapObjectTypeUnkNPST19func_ov090_02175bf8Ev kind:function(arm,size=0x14) addr:0x02175bf8
_ZN20MapObjectTypeUnkNPST19func_ov090_02175c0cEv kind:function(arm,size=0x14) addr:0x02175c0c
_ZN20MapObjectTypeUnkNPST19func_ov090_02175c20Ev kind:function(arm,size=0x14) addr:0x02175c20
_ZN20MapObjectTypeUnkNPST19func_ov090_02175c34Ev kind:function(arm,size=0x80) addr:0x02175c34
_ZN20MapObjectTypeUnkNPST19func_ov090_02175cb4Ev kind:function(arm,size=0x310) addr:0x02175cb4
_ZN20MapObjectTypeUnkNPST19func_ov090_02175fc4Ev kind:function(arm,size=0xcc) addr:0x02175fc4
_ZN20MapObjectTypeUnkNPST19func_ov090_02176090Ev kind:function(arm,size=0x130) addr:0x02176090
_ZN20MapObjectTypeUnkNPST19func_ov090_021761c0Ev kind:function(arm,size=0x10c) addr:0x021761c0
_ZN20MapObjectTypeUnkNPST19func_ov090_021762ccEv kind:function(arm,size=0x98) addr:0x021762cc
_ZN20MapObjectTypeUnkNPST19func_ov090_02176364Ev kind:function(arm,size=0xa8) addr:0x02176364
_ZN20MapObjectTypeUnkNPST19func_ov090_0217640cEv kind:function(arm,size=0xd0) addr:0x0217640c
_ZN20MapObjectTypeUnkNPST19func_ov090_021764dcEv kind:function(arm,size=0x158) addr:0x021764dc
_ZN20MapObjectTypeUnkNPST19func_ov090_02176634Ev kind:function(arm,size=0x6c) addr:0x02176634
_ZN20MapObjectTypeUnkNPST19func_ov090_021766a0Ev kind:function(arm,size=0x50) addr:0x021766a0
_ZN20MapObjectTypeUnkNPST19func_ov090_021766f0Ev kind:function(arm,size=0x74) addr:0x021766f0
_ZN20MapObjectTypeUnkNPST19func_ov090_02176764Ev kind:function(arm,size=0x78) addr:0x02176764
_ZN20MapObjectTypeUnkNPST19func_ov090_021767dcEv kind:function(arm,size=0x1c) addr:0x021767dc
_ZN20MapObjectTypeUnkNPST19func_ov090_021767f8Ev kind:function(arm,size=0x1c) addr:0x021767f8
_ZN20MapObjectTypeUnkNPST19func_ov090_02176814Ev kind:function(arm,size=0x14) addr:0x02176814
_ZN20MapObjectTypeUnkNPST19func_ov090_02176828Ev kind:function(arm,size=0x1c) addr:0x02176828
_ZN20MapObjectTypeUnkNPST19func_ov090_02176844Ev kind:function(arm,size=0x1c) addr:0x02176844
_ZN20MapObjectTypeUnkNPST19func_ov090_02176860Ev kind:function(arm,size=0x58) addr:0x02176860
_ZN20MapObjectTypeUnkNPST19func_ov090_021768b8Ev kind:function(arm,size=0x60) addr:0x021768b8
_ZN20MapObjectTypeUnkNPSTD1Ev kind:function(arm,size=0x14) addr:0x02176918
_ZN20MapObjectTypeUnkRBRC11GetInstanceEv kind:function(arm,size=0xc) addr:0x0217692c
_ZN20MapObjectTypeUnkRBRC6CreateEv kind:function(arm,size=0x24) addr:0x02176938
_ZN20MapObjectTypeUnkRBRCC1Ev kind:function(arm,size=0x8c) addr:0x0217695c
_ZN20MapObjectTypeUnkRBRC19func_ov090_021769e8Ev kind:function(arm,size=0x20) addr:0x021769e8
_ZN20MapObjectTypeUnkRBRC19func_ov090_02176a08Ev kind:function(arm,size=0x14) addr:0x02176a08
_ZN20MapObjectTypeUnkRBRC19func_ov090_02176a1cEv kind:function(arm,size=0xa8) addr:0x02176a1c
_ZN20MapObjectTypeUnkRBRC19func_ov090_02176ac4Ev kind:function(arm,size=0x20) addr:0x02176ac4
_ZN20MapObjectTypeUnkRBRC19func_ov090_02176ae4Ev kind:function(arm,size=0x28) addr:0x02176ae4
_ZN20MapObjectTypeUnkRBRCD1Ev kind:function(arm,size=0x14) addr:0x02176b0c
_ZN20MapObjectTypeUnkTRMR11GetInstanceEv kind:function(arm,size=0xc) addr:0x02176b20
_ZN20MapObjectTypeUnkTRMR6CreateEv kind:function(arm,size=0x24) addr:0x02176b2c
_ZN20MapObjectTypeUnkTRMRC1Ev kind:function(arm,size=0x94) addr:0x02176b50
_ZN20MapObjectTypeUnkTRMR19func_ov090_02176be4Ev kind:function(arm,size=0x20) addr:0x02176be4
_ZN20MapObjectTypeUnkTRMR19func_ov090_02176c04Ev kind:function(arm,size=0x20) addr:0x02176c04
_ZN20MapObjectTypeUnkTRMR19func_ov090_02176c24Ev kind:function(arm,size=0x50) addr:0x02176c24
_ZN20MapObjectTypeUnkTRMR19func_ov090_02176c74Ev kind:function(arm,size=0xc) addr:0x02176c74
_ZN20MapObjectTypeUnkTRMR19func_ov090_02176c80Ev kind:function(arm,size=0xa4) addr:0x02176c80
_ZN20MapObjectTypeUnkTRMR19func_ov090_02176d24Ev kind:function(arm,size=0x20) addr:0x02176d24
_ZN20MapObjectTypeUnkTRMR19func_ov090_02176d44Ev kind:function(arm,size=0x28) addr:0x02176d44
_ZN20MapObjectTypeUnkTRMRD1Ev kind:function(arm,size=0x14) addr:0x02176d6c
_ZN20MapObjectTypeUnkRBMR11GetInstanceEv kind:function(arm,size=0xc) addr:0x02176d80
_ZN20MapObjectTypeUnkRBMR6CreateEv kind:function(arm,size=0x24) addr:0x02176d8c
_ZN20MapObjectTypeUnkRBMRC1Ev kind:function(arm,size=0x8c) addr:0x02176db0
_ZN20MapObjectTypeUnkRBMR19func_ov090_02176e3cEv kind:function(arm,size=0x20) addr:0x02176e3c
_ZN20MapObjectTypeUnkRBMR19func_ov090_02176e5cEv kind:function(arm,size=0x14) addr:0x02176e5c
_ZN20MapObjectTypeUnkRBMR19func_ov090_02176e70Ev kind:function(arm,size=0xa8) addr:0x02176e70
_ZN20MapObjectTypeUnkRBMR19func_ov090_02176f18Ev kind:function(arm,size=0x20) addr:0x02176f18
_ZN20MapObjectTypeUnkRBMR19func_ov090_02176f38Ev kind:function(arm,size=0x28) addr:0x02176f38
_ZN20MapObjectTypeUnkRBMRD1Ev kind:function(arm,size=0x14) addr:0x02176f60
_ZN20MapObjectTypeUnkTRDT11GetInstanceEv kind:function(arm,size=0xc) addr:0x02176f74
_ZN20MapObjectTypeUnkTRDT6CreateEv kind:function(arm,size=0x24) addr:0x02176f80
_ZN20MapObjectTypeUnkTRDTC1Ev kind:function(arm,size=0x90) addr:0x02176fa4
_ZN20MapObjectTypeUnkTRDT19func_ov090_02177034Ev kind:function(arm,size=0x90) addr:0x02177034
_ZN20MapObjectTypeUnkTRDT19func_ov090_021770c4Ev kind:function(arm,size=0x4c) addr:0x021770c4
_ZN20MapObjectTypeUnkTRDT19func_ov090_02177110Ev kind:function(arm,size=0x94) addr:0x02177110
_ZN20MapObjectTypeUnkTRDT19func_ov090_021771a4Ev kind:function(arm,size=0x10) addr:0x021771a4
_ZN20MapObjectTypeUnkTRDT19func_ov090_021771b4Ev kind:function(arm,size=0x20) addr:0x021771b4
_ZN20MapObjectTypeUnkTRDT19func_ov090_021771d4Ev kind:function(arm,size=0x28) addr:0x021771d4
_ZN20MapObjectTypeUnkTRDTD1Ev kind:function(arm,size=0x14) addr:0x021771fc
_ZN20MapObjectTypeUnkTRCC11GetInstanceEv kind:function(arm,size=0xc) addr:0x02177210
_ZN20MapObjectTypeUnkTRCC6CreateEv kind:function(arm,size=0x24) addr:0x0217721c
_ZN20MapObjectTypeUnkTRCCC1Ev kind:function(arm,size=0x90) addr:0x02177240
_ZN20MapObjectTypeUnkTRCC19func_ov090_021772d0Ev kind:function(arm,size=0x90) addr:0x021772d0
_ZN20MapObjectTypeUnkTRCC19func_ov090_02177360Ev kind:function(arm,size=0x4c) addr:0x02177360
_ZN20MapObjectTypeUnkTRCC19func_ov090_021773acEv kind:function(arm,size=0x94) addr:0x021773ac
_ZN20MapObjectTypeUnkTRCC19func_ov090_02177440Ev kind:function(arm,size=0x10) addr:0x02177440
_ZN20MapObjectTypeUnkTRCC19func_ov090_02177450Ev kind:function(arm,size=0x20) addr:0x02177450
_ZN20MapObjectTypeUnkTRCC19func_ov090_02177470Ev kind:function(arm,size=0x28) addr:0x02177470
_ZN20MapObjectTypeUnkTRCCD1Ev kind:function(arm,size=0x14) addr:0x02177498
_ZN20MapObjectTypeUnkETNM11GetInstanceEv kind:function(arm,size=0xc) addr:0x021774ac
_ZN20MapObjectTypeUnkETNM6CreateEv kind:function(arm,size=0x24) addr:0x021774b8
_ZN20MapObjectTypeUnkETNMC1Ev kind:function(arm,size=0x34) addr:0x021774dc
_ZN20MapObjectTypeUnkETNM19func_ov090_02177510Ev kind:function(arm,size=0x20) addr:0x02177510
_ZN20MapObjectTypeUnkETNM19func_ov090_02177530Ev kind:function(arm,size=0x50) addr:0x02177530
_ZN20MapObjectTypeUnkETNM19func_ov090_02177580Ev kind:function(arm,size=0x30) addr:0x02177580
_ZN20MapObjectTypeUnkETNM19func_ov090_021775b0Ev kind:function(arm,size=0x38) addr:0x021775b0
_ZN20MapObjectTypeUnkETNMD1Ev kind:function(arm,size=0x14) addr:0x021775e8
data_ov090_021775fc kind:data(any) addr:0x021775fc
data_ov090_0217760c kind:data(any) addr:0x0217760c
data_ov090_0217761c kind:data(any) addr:0x0217761c
data_ov090_02177664 kind:data(any) addr:0x02177664
data_ov090_02177674 kind:data(any) addr:0x02177674
data_ov090_02177684 kind:data(any) addr:0x02177684
data_ov090_02177694 kind:data(any) addr:0x02177694
data_ov090_021776a4 kind:data(any) addr:0x021776a4
data_ov090_021776b4 kind:data(any) addr:0x021776b4
data_ov090_021776c4 kind:data(any) addr:0x021776c4
data_ov090_021776d4 kind:data(any) addr:0x021776d4
data_ov090_021776e8 kind:data(any) addr:0x021776e8
data_ov090_02177704 kind:data(any) addr:0x02177704
data_ov090_02177714 kind:data(any) addr:0x02177714
data_ov090_02177724 kind:data(any) addr:0x02177724
data_ov090_02177728 kind:data(any) addr:0x02177728 ambiguous
data_ov090_02177754 kind:data(any) addr:0x02177754
__sinit_ov090_02177760 kind:function(arm,size=0x108) addr:0x02177760
__sinit_ov090_02177868 kind:function(arm,size=0x70) addr:0x02177868
__sinit_ov090_021778d8 kind:function(arm,size=0x50) addr:0x021778d8
__sinit_ov090_02177928 kind:function(arm,size=0x5c) addr:0x02177928
__sinit_ov090_02177984 kind:function(arm,size=0x50) addr:0x02177984
__sinit_ov090_021779d4 kind:function(arm,size=0x50) addr:0x021779d4
__sinit_ov090_02177a24 kind:function(arm,size=0x50) addr:0x02177a24
__sinit_ov090_02177a74 kind:function(arm,size=0x50) addr:0x02177a74
__sinit_ov090_02177ac4 kind:function(arm,size=0x74) addr:0x02177ac4
__sinit_ov090_02177b38 kind:function(arm,size=0x50) addr:0x02177b38
__sinit_ov090_02177b88 kind:function(arm,size=0x68) addr:0x02177b88
__sinit_ov090_02177bf0 kind:function(arm,size=0x50) addr:0x02177bf0
__sinit_ov090_02177c40 kind:function(arm,size=0x50) addr:0x02177c40
__sinit_ov090_02177c90 kind:function(arm,size=0x50) addr:0x02177c90
__sinit_ov090_02177ce0 kind:function(arm,size=0x50) addr:0x02177ce0
__sinit_ov090_02177d30 kind:function(arm,size=0x50) addr:0x02177d30
__sinit_ov090_02177d80 kind:function(arm,size=0x50) addr:0x02177d80
__sinit_ov090_02177dd0 kind:function(arm,size=0x50) addr:0x02177dd0
__sinit_ov090_02177e20 kind:function(arm,size=0x50) addr:0x02177e20
__sinit_ov090_02177e70 kind:function(arm,size=0x50) addr:0x02177e70
.p__sinit_ov090_02177760 kind:data(word) addr:0x02177ec0
.p__sinit_ov090_02177868 kind:data(word) addr:0x02177ec4
.p__sinit_ov090_021778d8 kind:data(word) addr:0x02177ec8
.p__sinit_ov090_02177928 kind:data(word) addr:0x02177ecc
.p__sinit_ov090_02177984 kind:data(word) addr:0x02177ed0
.p__sinit_ov090_021779d4 kind:data(word) addr:0x02177ed4
.p__sinit_ov090_02177a24 kind:data(word) addr:0x02177ed8
.p__sinit_ov090_02177a74 kind:data(word) addr:0x02177edc
.p__sinit_ov090_02177ac4 kind:data(word) addr:0x02177ee0
.p__sinit_ov090_02177b38 kind:data(word) addr:0x02177ee4
.p__sinit_ov090_02177b88 kind:data(word) addr:0x02177ee8
.p__sinit_ov090_02177bf0 kind:data(word) addr:0x02177eec
.p__sinit_ov090_02177c40 kind:data(word) addr:0x02177ef0
.p__sinit_ov090_02177c90 kind:data(word) addr:0x02177ef4
.p__sinit_ov090_02177ce0 kind:data(word) addr:0x02177ef8
.p__sinit_ov090_02177d30 kind:data(word) addr:0x02177efc
.p__sinit_ov090_02177d80 kind:data(word) addr:0x02177f00
.p__sinit_ov090_02177dd0 kind:data(word) addr:0x02177f04
.p__sinit_ov090_02177e20 kind:data(word) addr:0x02177f08
.p__sinit_ov090_02177e70 kind:data(word) addr:0x02177f0c
data_ov090_02177f28 kind:data(any) addr:0x02177f28
data_ov090_02177f2c kind:data(any) addr:0x02177f2c
data_ov090_02177f44 kind:data(any) addr:0x02177f44
_ZTV19data_ov090_02177f5c kind:data(any) addr:0x02177f5c
data_ov090_02177f74 kind:data(any) addr:0x02177f74 ambiguous
data_ov090_02177f88 kind:data(any) addr:0x02177f88
data_ov090_02177fd0 kind:data(any) addr:0x02177fd0
_ZTV19data_ov090_02178014 kind:data(any) addr:0x02178014
data_ov090_02178078 kind:data(any) addr:0x02178078
data_ov090_02178090 kind:data(any) addr:0x02178090
data_ov090_021780a8 kind:data(any) addr:0x021780a8
data_ov090_021780c0 kind:data(any) addr:0x021780c0
data_ov090_021780d8 kind:data(any) addr:0x021780d8
data_ov090_021780f0 kind:data(any) addr:0x021780f0
data_ov090_02178108 kind:data(any) addr:0x02178108
data_ov090_02178120 kind:data(any) addr:0x02178120
data_ov090_02178130 kind:data(any) addr:0x02178130
data_ov090_02178228 kind:data(any) addr:0x02178228
data_ov090_02178238 kind:data(any) addr:0x02178238
_ZTV19data_ov090_0217824c kind:data(any) addr:0x0217824c
_ZTV19data_ov090_02178270 kind:data(any) addr:0x02178270
data_ov090_021782d4 kind:data(any) addr:0x021782d4
data_ov090_02178328 kind:data(any) addr:0x02178328 ambiguous
data_ov090_0217833c kind:data(any) addr:0x0217833c
data_ov090_021783a4 kind:data(any) addr:0x021783a4
data_ov090_021783bc kind:data(any) addr:0x021783bc
data_ov090_021783d4 kind:data(any) addr:0x021783d4
data_ov090_021783ec kind:data(any) addr:0x021783ec
data_ov090_02178404 kind:data(any) addr:0x02178404
data_ov090_0217841c kind:data(any) addr:0x0217841c
data_ov090_02178434 kind:data(any) addr:0x02178434
data_ov090_02178438 kind:data(any) addr:0x02178438
_ZTV19data_ov090_0217843c kind:data(any) addr:0x0217843c
data_ov090_02178460 kind:data(any) addr:0x02178460
data_ov090_021784a0 kind:data(any) addr:0x021784a0
_ZTV19data_ov090_021784e0 kind:data(any) addr:0x021784e0
data_ov090_02178544 kind:data(any) addr:0x02178544
data_ov090_0217855c kind:data(any) addr:0x0217855c
data_ov090_02178574 kind:data(any) addr:0x02178574
data_ov090_0217858c kind:data(any) addr:0x0217858c
data_ov090_021785a4 kind:data(any) addr:0x021785a4
data_ov090_021785bc kind:data(any) addr:0x021785bc
data_ov090_021785d4 kind:data(any) addr:0x021785d4
data_ov090_021785ec kind:data(any) addr:0x021785ec
_ZTV19data_ov090_02178604 kind:data(any) addr:0x02178604
data_ov090_02178630 kind:data(any) addr:0x02178630
data_ov090_0217865c kind:data(any) addr:0x0217865c
data_ov090_0217869c kind:data(any) addr:0x0217869c
data_ov090_021786f4 kind:data(any) addr:0x021786f4
_ZTV19data_ov090_0217874c kind:data(any) addr:0x0217874c
data_ov090_021787c8 kind:data(any) addr:0x021787c8
data_ov090_021787e0 kind:data(any) addr:0x021787e0
data_ov090_02178810 kind:data(any) addr:0x02178810
_ZTV19data_ov090_02178828 kind:data(any) addr:0x02178828
_ZTV19data_ov090_0217884c kind:data(any) addr:0x0217884c
_ZTV19data_ov090_021788a8 kind:data(any) addr:0x021788a8
_ZTV19data_ov090_021788cc kind:data(any) addr:0x021788cc
_ZTV19data_ov090_02178928 kind:data(any) addr:0x02178928
_ZTV19data_ov090_0217894c kind:data(any) addr:0x0217894c
data_ov090_021789b0 kind:data(any) addr:0x021789b0
data_ov090_021789cc kind:data(any) addr:0x021789cc
data_ov090_02178a54 kind:data(any) addr:0x02178a54
data_ov090_02178a68 kind:data(any) addr:0x02178a68
data_ov090_02178a7c kind:data(any) addr:0x02178a7c
data_ov090_02178a98 kind:data(any) addr:0x02178a98
data_ov090_02178ab4 kind:data(any) addr:0x02178ab4
data_ov090_02178adc kind:data(any) addr:0x02178adc
data_ov090_02178b6c kind:data(any) addr:0x02178b6c
data_ov090_02178b88 kind:data(any) addr:0x02178b88
data_ov090_02178be8 kind:data(any) addr:0x02178be8
data_ov090_02178c40 kind:data(any) addr:0x02178c40
data_ov090_02178c54 kind:data(any) addr:0x02178c54
data_ov090_02178c70 kind:data(any) addr:0x02178c70
data_ov090_02178ccc kind:data(any) addr:0x02178ccc
data_ov090_02178ce8 kind:data(any) addr:0x02178ce8
data_ov090_02178d04 kind:data(any) addr:0x02178d04
data_ov090_02178d2c kind:data(any) addr:0x02178d2c
data_ov090_02178d8c kind:data(any) addr:0x02178d8c
data_ov090_02178da8 kind:data(any) addr:0x02178da8
data_ov090_02178e08 kind:data(any) addr:0x02178e08
data_ov090_02178e1c kind:data(any) addr:0x02178e1c
data_ov090_02178e38 kind:data(any) addr:0x02178e38
data_ov090_02178e64 kind:data(any) addr:0x02178e64
data_ov090_02178ea4 kind:data(any) addr:0x02178ea4 ambiguous
data_ov090_02178ebc kind:data(any) addr:0x02178ebc
data_ov090_02178ed0 kind:data(any) addr:0x02178ed0
data_ov090_02178eec kind:data(any) addr:0x02178eec
data_ov090_02178f08 kind:data(any) addr:0x02178f08
data_ov090_02178f68 kind:data(any) addr:0x02178f68
data_ov090_02178f84 kind:data(any) addr:0x02178f84
data_ov090_02178fe4 kind:data(any) addr:0x02178fe4
data_ov090_02179000 kind:data(any) addr:0x02179000
data_ov090_02179060 kind:data(any) addr:0x02179060
data_ov090_0217907c kind:data(any) addr:0x0217907c
data_ov090_021790cc kind:data(any) addr:0x021790cc
data_ov090_021790e8 kind:data(any) addr:0x021790e8
data_ov090_02179138 kind:data(any) addr:0x02179138
data_ov090_02179154 kind:data(any) addr:0x02179154
data_ov090_021791e0 kind:bss addr:0x021791e0
data_ov090_021791e8 kind:bss addr:0x021791e8
data_ov090_021791f4 kind:bss addr:0x021791f4
data_ov090_02179200 kind:bss addr:0x02179200
data_ov090_02179214 kind:bss addr:0x02179214
data_ov090_021792ec kind:bss addr:0x021792ec
data_ov090_021792f4 kind:bss addr:0x021792f4
data_ov090_02179300 kind:bss addr:0x02179300
data_ov090_0217930c kind:bss addr:0x0217930c
data_ov090_021793e4 kind:bss addr:0x021793e4
data_ov090_021793e8 kind:bss addr:0x021793e8
data_ov090_021793f4 kind:bss addr:0x021793f4
data_ov090_02179478 kind:bss addr:0x02179478 ambiguous
data_ov090_021794a0 kind:bss addr:0x021794a0 ambiguous
data_ov090_021794cc kind:bss addr:0x021794cc
data_ov090_021794d0 kind:bss addr:0x021794d0
data_ov090_021794dc kind:bss addr:0x021794dc
data_ov090_021794e8 kind:bss addr:0x021794e8
data_ov090_021795c0 kind:bss addr:0x021795c0
data_ov090_021795c4 kind:bss addr:0x021795c4
data_ov090_021795d0 kind:bss addr:0x021795d0
data_ov090_0217960c kind:bss addr:0x0217960c
data_ov090_02179610 kind:bss addr:0x02179610
data_ov090_0217961c kind:bss addr:0x0217961c
data_ov090_02179658 kind:bss addr:0x02179658
data_ov090_0217965c kind:bss addr:0x0217965c
data_ov090_02179668 kind:bss addr:0x02179668
data_ov090_021796a4 kind:bss addr:0x021796a4
data_ov090_021796a8 kind:bss addr:0x021796a8
data_ov090_021796b4 kind:bss addr:0x021796b4
data_ov090_021796d4 kind:bss addr:0x021796d4
data_ov090_02179788 kind:bss addr:0x02179788
data_ov090_0217978c kind:bss addr:0x0217978c
data_ov090_02179798 kind:bss addr:0x02179798
data_ov090_021797b8 kind:bss addr:0x021797b8
data_ov090_0217986c kind:bss addr:0x0217986c
data_ov090_02179890 kind:bss addr:0x02179890
data_ov090_02179894 kind:bss addr:0x02179894
data_ov090_021798a0 kind:bss addr:0x021798a0
data_ov090_021798c0 kind:bss addr:0x021798c0
data_ov090_021798c8 kind:bss addr:0x021798c8
data_ov090_021798d4 kind:bss addr:0x021798d4
data_ov090_021798f4 kind:bss addr:0x021798f4
data_ov090_021798f8 kind:bss addr:0x021798f8
data_ov090_02179904 kind:bss addr:0x02179904
data_ov090_021799d8 kind:bss addr:0x021799d8
data_ov090_021799f8 kind:bss addr:0x021799f8
data_ov090_021799fc kind:bss addr:0x021799fc
data_ov090_02179a08 kind:bss addr:0x02179a08
data_ov090_02179adc kind:bss addr:0x02179adc
data_ov090_02179afc kind:bss addr:0x02179afc
data_ov090_02179b00 kind:bss addr:0x02179b00
data_ov090_02179b0c kind:bss addr:0x02179b0c
data_ov090_02179b2c kind:bss addr:0x02179b2c
data_ov090_02179be0 kind:bss addr:0x02179be0
data_ov090_02179c00 kind:bss addr:0x02179c00
data_ov090_02179c04 kind:bss addr:0x02179c04
data_ov090_02179c10 kind:bss addr:0x02179c10
data_ov090_02179c54 kind:bss addr:0x02179c54
data_ov090_02179c58 kind:bss addr:0x02179c58
data_ov090_02179c5c kind:bss addr:0x02179c5c ambiguous
data_ov090_02179c64 kind:bss addr:0x02179c64
data_ov090_02179d38 kind:bss addr:0x02179d38
data_ov090_02179d58 kind:bss addr:0x02179d58
data_ov090_02179d5c kind:bss addr:0x02179d5c
data_ov090_02179d68 kind:bss addr:0x02179d68
data_ov090_02179dac kind:bss addr:0x02179dac
data_ov090_02179db0 kind:bss addr:0x02179db0
data_ov090_02179dbc kind:bss addr:0x02179dbc
data_ov090_02179e90 kind:bss addr:0x02179e90
data_ov090_02179eb0 kind:bss addr:0x02179eb0
data_ov090_02179eb4 kind:bss addr:0x02179eb4
data_ov090_02179ec0 kind:bss addr:0x02179ec0
data_ov090_02179f94 kind:bss addr:0x02179f94
data_ov090_02179fa0 kind:bss addr:0x02179fa0 ambiguous
data_ov090_02179fb4 kind:bss addr:0x02179fb4
data_ov090_02179fb8 kind:bss addr:0x02179fb8
data_ov090_02179fc4 kind:bss addr:0x02179fc4
